
HLV-Attiny1626_Boron_Sleep.elf:     file format elf32-avr

Sections:
Idx Name          Size      VMA       LMA       File off  Algn
  0 .data         00000040  00803800  00003773  00003827  2**0
                  CONTENTS, ALLOC, LOAD, DATA
  1 .text         00003636  00000000  00000000  000000b4  2**1
                  CONTENTS, ALLOC, LOAD, READONLY, CODE
  2 .rodata       0000013d  0000b636  00003636  000036ea  2**0
                  CONTENTS, ALLOC, LOAD, READONLY, DATA
  3 .bss          000000d8  00803840  00803840  00003867  2**0
                  ALLOC
  4 .comment      0000005c  00000000  00000000  00003867  2**0
                  CONTENTS, READONLY
  5 .note.gnu.avr.deviceinfo 00000040  00000000  00000000  000038c4  2**2
                  CONTENTS, READONLY
  6 .debug_aranges 00000110  00000000  00000000  00003904  2**0
                  CONTENTS, READONLY, DEBUGGING
  7 .debug_info   00004acb  00000000  00000000  00003a14  2**0
                  CONTENTS, READONLY, DEBUGGING
  8 .debug_abbrev 00001c2a  00000000  00000000  000084df  2**0
                  CONTENTS, READONLY, DEBUGGING
  9 .debug_line   0000144a  00000000  00000000  0000a109  2**0
                  CONTENTS, READONLY, DEBUGGING
 10 .debug_frame  00000494  00000000  00000000  0000b554  2**2
                  CONTENTS, READONLY, DEBUGGING
 11 .debug_str    00002051  00000000  00000000  0000b9e8  2**0
                  CONTENTS, READONLY, DEBUGGING
 12 .debug_loc    00001a26  00000000  00000000  0000da39  2**0
                  CONTENTS, READONLY, DEBUGGING
 13 .debug_ranges 00000178  00000000  00000000  0000f45f  2**0
                  CONTENTS, READONLY, DEBUGGING

Disassembly of section .text:

00000000 <__vectors>:
       0:	0c 94 e4 00 	jmp	0x1c8	; 0x1c8 <__ctors_end>
       4:	0c 94 01 01 	jmp	0x202	; 0x202 <__bad_interrupt>
       8:	0c 94 01 01 	jmp	0x202	; 0x202 <__bad_interrupt>
       c:	0c 94 01 01 	jmp	0x202	; 0x202 <__bad_interrupt>
      10:	0c 94 01 01 	jmp	0x202	; 0x202 <__bad_interrupt>
      14:	0c 94 01 01 	jmp	0x202	; 0x202 <__bad_interrupt>
      18:	0c 94 01 01 	jmp	0x202	; 0x202 <__bad_interrupt>
      1c:	0c 94 01 01 	jmp	0x202	; 0x202 <__bad_interrupt>
      20:	0c 94 88 05 	jmp	0xb10	; 0xb10 <__vector_8>
      24:	0c 94 01 01 	jmp	0x202	; 0x202 <__bad_interrupt>
      28:	0c 94 01 01 	jmp	0x202	; 0x202 <__bad_interrupt>
      2c:	0c 94 01 01 	jmp	0x202	; 0x202 <__bad_interrupt>
      30:	0c 94 01 01 	jmp	0x202	; 0x202 <__bad_interrupt>
      34:	0c 94 9a 06 	jmp	0xd34	; 0xd34 <__vector_13>
      38:	0c 94 01 01 	jmp	0x202	; 0x202 <__bad_interrupt>
      3c:	0c 94 01 01 	jmp	0x202	; 0x202 <__bad_interrupt>
      40:	0c 94 01 01 	jmp	0x202	; 0x202 <__bad_interrupt>
      44:	0c 94 b9 01 	jmp	0x372	; 0x372 <__vector_17>
      48:	0c 94 01 01 	jmp	0x202	; 0x202 <__bad_interrupt>
      4c:	0c 94 01 01 	jmp	0x202	; 0x202 <__bad_interrupt>
      50:	0c 94 01 01 	jmp	0x202	; 0x202 <__bad_interrupt>
      54:	0c 94 01 01 	jmp	0x202	; 0x202 <__bad_interrupt>
      58:	0c 94 01 01 	jmp	0x202	; 0x202 <__bad_interrupt>
      5c:	0c 94 01 01 	jmp	0x202	; 0x202 <__bad_interrupt>
      60:	0c 94 af 05 	jmp	0xb5e	; 0xb5e <__vector_24>
      64:	0c 94 01 01 	jmp	0x202	; 0x202 <__bad_interrupt>
      68:	0c 94 01 01 	jmp	0x202	; 0x202 <__bad_interrupt>
      6c:	0c 94 01 01 	jmp	0x202	; 0x202 <__bad_interrupt>
      70:	0c 94 01 01 	jmp	0x202	; 0x202 <__bad_interrupt>
      74:	0c 94 01 01 	jmp	0x202	; 0x202 <__bad_interrupt>

00000078 <__trampolines_end>:
      78:	6e 61       	ori	r22, 0x1E	; 30
      7a:	6e 00       	.word	0x006e	; ????

0000007c <__c.2332>:
      7c:	69 6e 66 00 00 40 7a 10 f3 5a 00 a0 72 4e 18 09     inf..@z..Z..rN..
      8c:	00 10 a5 d4 e8 00 00 e8 76 48 17 00 00 e4 0b 54     ........vH.....T
      9c:	02 00 00 ca 9a 3b 00 00 00 e1 f5 05 00 00 80 96     .....;..........
      ac:	98 00 00 00 40 42 0f 00 00 00 a0 86 01 00 00 00     ....@B..........
      bc:	10 27 00 00 00 00 e8 03 00 00 00 00 64 00 00 00     .'..........d...
      cc:	00 00 0a 00 00 00 00 00 01 00 00 00 00 00 2c 76     ..............,v
      dc:	d8 88 dc 67 4f 08 23 df c1 df ae 59 e1 b1 b7 96     ...gO.#....Y....
      ec:	e5 e3 e4 53 c6 3a e6 51 99 76 96 e8 e6 c2 84 26     ...S.:.Q.v.....&
      fc:	eb 89 8c 9b 62 ed 40 7c 6f fc ef bc 9c 9f 40 f2     ....b.@|o.....@.
     10c:	ba a5 6f a5 f4 90 05 5a 2a f7 5c 93 6b 6c f9 67     ..o....Z*.\.kl.g
     11c:	6d c1 1b fc e0 e4 0d 47 fe f5 20 e6 b5 00 d0 ed     m......G.. .....
     12c:	90 2e 03 00 94 35 77 05 00 80 84 1e 08 00 00 20     .....5w........ 
     13c:	4e 0a 00 00 00 c8 0c 33 33 33 33 0f 98 6e 12 83     N......3333..n..
     14c:	11 41 ef 8d 21 14 89 3b e6 55 16 cf fe e6 db 18     .A..!..;.U......
     15c:	d1 84 4b 38 1b f7 7c 1d 90 1d a4 bb e4 24 20 32     ..K8..|......$ 2
     16c:	84 72 5e 22 81 00 c9 f1 24 ec a1 e5 3d 27           .r^"....$...='

0000017a <__c.2529>:
     17a:	63 64 69 6e 6f 70 73 75 78 58 5b 65 66 67 45 46     cdinopsuxX[efgEF
     18a:	47 00                                               G.

0000018c <pstr_an>:
     18c:	61 6e 00                                            an.

0000018f <pstr_nfinity>:
     18f:	6e 66 69 6e 69 74 79 00                             nfinity.

00000197 <pwr_m10>:
     197:	cd cc cc 3d 0a d7 23 3c 17 b7 d1 38 77 cc 2b 32     ...=..#<...8w.+2
     1a7:	95 95 e6 24 1f b1 4f 0a                             ...$..O.

000001af <pwr_p10>:
     1af:	00 00 20 41 00 00 c8 42 00 40 1c 46 20 bc be 4c     .. A...B.@.F ..L
     1bf:	ca 1b 0e 5a ae c5 9d 74 00                          ...Z...t.

000001c8 <__ctors_end>:
     1c8:	11 24       	eor	r1, r1
     1ca:	1f be       	out	0x3f, r1	; 63
     1cc:	cf ef       	ldi	r28, 0xFF	; 255
     1ce:	cd bf       	out	0x3d, r28	; 61
     1d0:	df e3       	ldi	r29, 0x3F	; 63
     1d2:	de bf       	out	0x3e, r29	; 62

000001d4 <__do_copy_data>:
     1d4:	18 e3       	ldi	r17, 0x38	; 56
     1d6:	a0 e0       	ldi	r26, 0x00	; 0
     1d8:	b8 e3       	ldi	r27, 0x38	; 56
     1da:	e3 e7       	ldi	r30, 0x73	; 115
     1dc:	f7 e3       	ldi	r31, 0x37	; 55
     1de:	02 c0       	rjmp	.+4      	; 0x1e4 <__do_copy_data+0x10>
     1e0:	05 90       	lpm	r0, Z+
     1e2:	0d 92       	st	X+, r0
     1e4:	a0 34       	cpi	r26, 0x40	; 64
     1e6:	b1 07       	cpc	r27, r17
     1e8:	d9 f7       	brne	.-10     	; 0x1e0 <__do_copy_data+0xc>

000001ea <__do_clear_bss>:
     1ea:	29 e3       	ldi	r18, 0x39	; 57
     1ec:	a0 e4       	ldi	r26, 0x40	; 64
     1ee:	b8 e3       	ldi	r27, 0x38	; 56
     1f0:	01 c0       	rjmp	.+2      	; 0x1f4 <.do_clear_bss_start>

000001f2 <.do_clear_bss_loop>:
     1f2:	1d 92       	st	X+, r1

000001f4 <.do_clear_bss_start>:
     1f4:	a8 31       	cpi	r26, 0x18	; 24
     1f6:	b2 07       	cpc	r27, r18
     1f8:	e1 f7       	brne	.-8      	; 0x1f2 <.do_clear_bss_loop>
     1fa:	0e 94 86 0d 	call	0x1b0c	; 0x1b0c <main>
     1fe:	0c 94 19 1b 	jmp	0x3632	; 0x3632 <_exit>

00000202 <__bad_interrupt>:
     202:	0c 94 00 00 	jmp	0	; 0x0 <__vectors>

00000206 <PinInit>:

uint8_t RX_acked(void)
{
	// Actual status of the line O means ACK - 1 means NACK. Therefore ! MSTATUS bit
	return (!(TWI0.MSTATUS & TWI_RXACK_bm));
}
     206:	e0 e0       	ldi	r30, 0x00	; 0
     208:	f4 e0       	ldi	r31, 0x04	; 4
     20a:	80 81       	ld	r24, Z
     20c:	8b 7f       	andi	r24, 0xFB	; 251
     20e:	80 83       	st	Z, r24
     210:	80 81       	ld	r24, Z
     212:	82 60       	ori	r24, 0x02	; 2
     214:	80 83       	st	Z, r24
     216:	a0 e2       	ldi	r26, 0x20	; 32
     218:	b4 e0       	ldi	r27, 0x04	; 4
     21a:	54 96       	adiw	r26, 0x14	; 20
     21c:	8c 91       	ld	r24, X
     21e:	54 97       	sbiw	r26, 0x14	; 20
     220:	88 7f       	andi	r24, 0xF8	; 248
     222:	54 96       	adiw	r26, 0x14	; 20
     224:	8c 93       	st	X, r24
     226:	54 97       	sbiw	r26, 0x14	; 20
     228:	54 96       	adiw	r26, 0x14	; 20
     22a:	8c 91       	ld	r24, X
     22c:	54 97       	sbiw	r26, 0x14	; 20
     22e:	84 60       	ori	r24, 0x04	; 4
     230:	54 96       	adiw	r26, 0x14	; 20
     232:	8c 93       	st	X, r24
     234:	54 97       	sbiw	r26, 0x14	; 20
     236:	54 96       	adiw	r26, 0x14	; 20
     238:	8c 91       	ld	r24, X
     23a:	54 97       	sbiw	r26, 0x14	; 20
     23c:	87 7f       	andi	r24, 0xF7	; 247
     23e:	54 96       	adiw	r26, 0x14	; 20
     240:	8c 93       	st	X, r24
     242:	54 97       	sbiw	r26, 0x14	; 20
     244:	85 89       	ldd	r24, Z+21	; 0x15
     246:	88 7f       	andi	r24, 0xF8	; 248
     248:	85 8b       	std	Z+21, r24	; 0x15
     24a:	85 89       	ldd	r24, Z+21	; 0x15
     24c:	84 60       	ori	r24, 0x04	; 4
     24e:	85 8b       	std	Z+21, r24	; 0x15
     250:	85 89       	ldd	r24, Z+21	; 0x15
     252:	87 7f       	andi	r24, 0xF7	; 247
     254:	85 8b       	std	Z+21, r24	; 0x15
     256:	93 e0       	ldi	r25, 0x03	; 3
     258:	11 96       	adiw	r26, 0x01	; 1
     25a:	9c 93       	st	X, r25
     25c:	11 97       	sbiw	r26, 0x01	; 1
     25e:	50 96       	adiw	r26, 0x10	; 16
     260:	8c 91       	ld	r24, X
     262:	50 97       	sbiw	r26, 0x10	; 16
     264:	87 7f       	andi	r24, 0xF7	; 247
     266:	50 96       	adiw	r26, 0x10	; 16
     268:	8c 93       	st	X, r24
     26a:	50 97       	sbiw	r26, 0x10	; 16
     26c:	14 96       	adiw	r26, 0x04	; 4
     26e:	9c 93       	st	X, r25
     270:	14 97       	sbiw	r26, 0x04	; 4
     272:	51 96       	adiw	r26, 0x11	; 17
     274:	8c 91       	ld	r24, X
     276:	51 97       	sbiw	r26, 0x11	; 17
     278:	87 7f       	andi	r24, 0xF7	; 247
     27a:	51 96       	adiw	r26, 0x11	; 17
     27c:	8c 93       	st	X, r24
     27e:	51 97       	sbiw	r26, 0x11	; 17
     280:	86 89       	ldd	r24, Z+22	; 0x16
     282:	88 7f       	andi	r24, 0xF8	; 248
     284:	86 8b       	std	Z+22, r24	; 0x16
     286:	86 89       	ldd	r24, Z+22	; 0x16
     288:	84 60       	ori	r24, 0x04	; 4
     28a:	86 8b       	std	Z+22, r24	; 0x16
     28c:	86 89       	ldd	r24, Z+22	; 0x16
     28e:	87 7f       	andi	r24, 0xF7	; 247
     290:	86 8b       	std	Z+22, r24	; 0x16
     292:	8c 91       	ld	r24, X
     294:	80 62       	ori	r24, 0x20	; 32
     296:	8c 93       	st	X, r24
     298:	55 96       	adiw	r26, 0x15	; 21
     29a:	8c 91       	ld	r24, X
     29c:	55 97       	sbiw	r26, 0x15	; 21
     29e:	87 7f       	andi	r24, 0xF7	; 247
     2a0:	55 96       	adiw	r26, 0x15	; 21
     2a2:	8c 93       	st	X, r24
     2a4:	55 97       	sbiw	r26, 0x15	; 21
     2a6:	14 96       	adiw	r26, 0x04	; 4
     2a8:	8c 91       	ld	r24, X
     2aa:	14 97       	sbiw	r26, 0x04	; 4
     2ac:	8f 7d       	andi	r24, 0xDF	; 223
     2ae:	14 96       	adiw	r26, 0x04	; 4
     2b0:	8c 93       	st	X, r24
     2b2:	80 81       	ld	r24, Z
     2b4:	88 60       	ori	r24, 0x08	; 8
     2b6:	80 83       	st	Z, r24
     2b8:	83 89       	ldd	r24, Z+19	; 0x13
     2ba:	87 7f       	andi	r24, 0xF7	; 247
     2bc:	83 8b       	std	Z+19, r24	; 0x13
     2be:	84 81       	ldd	r24, Z+4	; 0x04
     2c0:	87 7f       	andi	r24, 0xF7	; 247
     2c2:	84 83       	std	Z+4, r24	; 0x04
     2c4:	08 95       	ret

000002c6 <PORT_LOWPOWER_Init>:
     2c6:	80 e0       	ldi	r24, 0x00	; 0
     2c8:	08 c0       	rjmp	.+16     	; 0x2da <PORT_LOWPOWER_Init+0x14>
     2ca:	e8 2f       	mov	r30, r24
     2cc:	f0 e0       	ldi	r31, 0x00	; 0
     2ce:	e0 5f       	subi	r30, 0xF0	; 240
     2d0:	fb 4f       	sbci	r31, 0xFB	; 251
     2d2:	90 81       	ld	r25, Z
     2d4:	98 60       	ori	r25, 0x08	; 8
     2d6:	90 83       	st	Z, r25
     2d8:	8f 5f       	subi	r24, 0xFF	; 255
     2da:	88 30       	cpi	r24, 0x08	; 8
     2dc:	b0 f3       	brcs	.-20     	; 0x2ca <PORT_LOWPOWER_Init+0x4>
     2de:	80 e0       	ldi	r24, 0x00	; 0
     2e0:	08 c0       	rjmp	.+16     	; 0x2f2 <PORT_LOWPOWER_Init+0x2c>
     2e2:	e8 2f       	mov	r30, r24
     2e4:	f0 e0       	ldi	r31, 0x00	; 0
     2e6:	e0 5d       	subi	r30, 0xD0	; 208
     2e8:	fb 4f       	sbci	r31, 0xFB	; 251
     2ea:	90 81       	ld	r25, Z
     2ec:	98 60       	ori	r25, 0x08	; 8
     2ee:	90 83       	st	Z, r25
     2f0:	8f 5f       	subi	r24, 0xFF	; 255
     2f2:	86 30       	cpi	r24, 0x06	; 6
     2f4:	b0 f3       	brcs	.-20     	; 0x2e2 <PORT_LOWPOWER_Init+0x1c>
     2f6:	80 e0       	ldi	r24, 0x00	; 0
     2f8:	08 c0       	rjmp	.+16     	; 0x30a <PORT_LOWPOWER_Init+0x44>
     2fa:	e8 2f       	mov	r30, r24
     2fc:	f0 e0       	ldi	r31, 0x00	; 0
     2fe:	e0 5b       	subi	r30, 0xB0	; 176
     300:	fb 4f       	sbci	r31, 0xFB	; 251
     302:	90 81       	ld	r25, Z
     304:	98 60       	ori	r25, 0x08	; 8
     306:	90 83       	st	Z, r25
     308:	8f 5f       	subi	r24, 0xFF	; 255
     30a:	84 30       	cpi	r24, 0x04	; 4
     30c:	b0 f3       	brcs	.-20     	; 0x2fa <PORT_LOWPOWER_Init+0x34>
     30e:	08 95       	ret

00000310 <CLOCK32K_init>:
     310:	88 ed       	ldi	r24, 0xD8	; 216
     312:	84 bf       	out	0x34, r24	; 52
     314:	10 92 61 00 	sts	0x0061, r1	; 0x800061 <__RODATA_PM_OFFSET__+0x7f8061>
     318:	84 bf       	out	0x34, r24	; 52
     31a:	81 e0       	ldi	r24, 0x01	; 1
     31c:	80 93 60 00 	sts	0x0060, r24	; 0x800060 <__RODATA_PM_OFFSET__+0x7f8060>
     320:	08 95       	ret

00000322 <USART0_sendChar>:
     322:	90 91 04 08 	lds	r25, 0x0804	; 0x800804 <__RODATA_PM_OFFSET__+0x7f8804>
     326:	95 ff       	sbrs	r25, 5
     328:	fc cf       	rjmp	.-8      	; 0x322 <USART0_sendChar>
     32a:	80 93 02 08 	sts	0x0802, r24	; 0x800802 <__RODATA_PM_OFFSET__+0x7f8802>
     32e:	08 95       	ret

00000330 <USART0_printChar>:
     330:	0e 94 91 01 	call	0x322	; 0x322 <USART0_sendChar>
     334:	80 e0       	ldi	r24, 0x00	; 0
     336:	90 e0       	ldi	r25, 0x00	; 0
     338:	08 95       	ret

0000033a <USART0_readChar>:
     33a:	80 91 04 08 	lds	r24, 0x0804	; 0x800804 <__RODATA_PM_OFFSET__+0x7f8804>
     33e:	88 23       	and	r24, r24
     340:	e4 f7       	brge	.-8      	; 0x33a <USART0_readChar>
     342:	80 91 00 08 	lds	r24, 0x0800	; 0x800800 <__RODATA_PM_OFFSET__+0x7f8800>
     346:	08 95       	ret

00000348 <USART0_init>:
     348:	e0 e0       	ldi	r30, 0x00	; 0
     34a:	f8 e0       	ldi	r31, 0x08	; 8
     34c:	8d e6       	ldi	r24, 0x6D	; 109
     34e:	90 e0       	ldi	r25, 0x00	; 0
     350:	80 87       	std	Z+8, r24	; 0x08
     352:	91 87       	std	Z+9, r25	; 0x09
     354:	80 ec       	ldi	r24, 0xC0	; 192
     356:	86 83       	std	Z+6, r24	; 0x06
     358:	80 e8       	ldi	r24, 0x80	; 128
     35a:	80 93 05 08 	sts	0x0805, r24	; 0x800805 <__RODATA_PM_OFFSET__+0x7f8805>
     35e:	81 e0       	ldi	r24, 0x01	; 1
     360:	80 93 e2 05 	sts	0x05E2, r24	; 0x8005e2 <__RODATA_PM_OFFSET__+0x7f85e2>
     364:	80 e0       	ldi	r24, 0x00	; 0
     366:	98 e3       	ldi	r25, 0x38	; 56
     368:	80 93 14 39 	sts	0x3914, r24	; 0x803914 <__iob+0x2>
     36c:	90 93 15 39 	sts	0x3915, r25	; 0x803915 <__iob+0x3>
     370:	08 95       	ret

00000372 <__vector_17>:
     372:	1f 92       	push	r1
     374:	0f 92       	push	r0
     376:	0f b6       	in	r0, 0x3f	; 63
     378:	0f 92       	push	r0
     37a:	11 24       	eor	r1, r1
     37c:	2f 93       	push	r18
     37e:	3f 93       	push	r19
     380:	4f 93       	push	r20
     382:	5f 93       	push	r21
     384:	6f 93       	push	r22
     386:	7f 93       	push	r23
     388:	8f 93       	push	r24
     38a:	9f 93       	push	r25
     38c:	af 93       	push	r26
     38e:	bf 93       	push	r27
     390:	ef 93       	push	r30
     392:	ff 93       	push	r31
     394:	0e 94 9d 01 	call	0x33a	; 0x33a <USART0_readChar>
     398:	80 93 0f 39 	sts	0x390F, r24	; 0x80390f <c>
     39c:	88 23       	and	r24, r24
     39e:	81 f0       	breq	.+32     	; 0x3c0 <__vector_17+0x4e>
     3a0:	8d 30       	cpi	r24, 0x0D	; 13
     3a2:	71 f0       	breq	.+28     	; 0x3c0 <__vector_17+0x4e>
     3a4:	90 91 78 38 	lds	r25, 0x3878	; 0x803878 <index1>
     3a8:	e9 2f       	mov	r30, r25
     3aa:	f0 e0       	ldi	r31, 0x00	; 0
     3ac:	e2 5f       	subi	r30, 0xF2	; 242
     3ae:	f7 4c       	sbci	r31, 0xC7	; 199
     3b0:	80 83       	st	Z, r24
     3b2:	9f 5f       	subi	r25, 0xFF	; 255
     3b4:	90 93 78 38 	sts	0x3878, r25	; 0x803878 <index1>
     3b8:	93 33       	cpi	r25, 0x33	; 51
     3ba:	10 f0       	brcs	.+4      	; 0x3c0 <__vector_17+0x4e>
     3bc:	10 92 78 38 	sts	0x3878, r1	; 0x803878 <index1>
     3c0:	8d 30       	cpi	r24, 0x0D	; 13
     3c2:	09 f0       	breq	.+2      	; 0x3c6 <__vector_17+0x54>
     3c4:	4f c0       	rjmp	.+158    	; 0x464 <__LOCK_REGION_LENGTH__+0x64>
     3c6:	e0 91 78 38 	lds	r30, 0x3878	; 0x803878 <index1>
     3ca:	f0 e0       	ldi	r31, 0x00	; 0
     3cc:	e2 5f       	subi	r30, 0xF2	; 242
     3ce:	f7 4c       	sbci	r31, 0xC7	; 199
     3d0:	80 83       	st	Z, r24
     3d2:	10 92 78 38 	sts	0x3878, r1	; 0x803878 <index1>
     3d6:	80 91 dd 38 	lds	r24, 0x38DD	; 0x8038dd <command1>
     3da:	81 11       	cpse	r24, r1
     3dc:	11 c0       	rjmp	.+34     	; 0x400 <__LOCK_REGION_LENGTH__>
     3de:	90 91 ab 38 	lds	r25, 0x38AB	; 0x8038ab <command2>
     3e2:	91 11       	cpse	r25, r1
     3e4:	0d c0       	rjmp	.+26     	; 0x400 <__LOCK_REGION_LENGTH__>
     3e6:	90 91 79 38 	lds	r25, 0x3879	; 0x803879 <command3>
     3ea:	91 11       	cpse	r25, r1
     3ec:	09 c0       	rjmp	.+18     	; 0x400 <__LOCK_REGION_LENGTH__>
     3ee:	42 e3       	ldi	r20, 0x32	; 50
     3f0:	50 e0       	ldi	r21, 0x00	; 0
     3f2:	6e e0       	ldi	r22, 0x0E	; 14
     3f4:	78 e3       	ldi	r23, 0x38	; 56
     3f6:	8d ed       	ldi	r24, 0xDD	; 221
     3f8:	98 e3       	ldi	r25, 0x38	; 56
     3fa:	0e 94 6b 19 	call	0x32d6	; 0x32d6 <strncpy>
     3fe:	25 c0       	rjmp	.+74     	; 0x44a <__LOCK_REGION_LENGTH__+0x4a>
     400:	88 23       	and	r24, r24
     402:	89 f0       	breq	.+34     	; 0x426 <__LOCK_REGION_LENGTH__+0x26>
     404:	90 91 ab 38 	lds	r25, 0x38AB	; 0x8038ab <command2>
     408:	91 11       	cpse	r25, r1
     40a:	0d c0       	rjmp	.+26     	; 0x426 <__LOCK_REGION_LENGTH__+0x26>
     40c:	90 91 79 38 	lds	r25, 0x3879	; 0x803879 <command3>
     410:	91 11       	cpse	r25, r1
     412:	09 c0       	rjmp	.+18     	; 0x426 <__LOCK_REGION_LENGTH__+0x26>
     414:	42 e3       	ldi	r20, 0x32	; 50
     416:	50 e0       	ldi	r21, 0x00	; 0
     418:	6e e0       	ldi	r22, 0x0E	; 14
     41a:	78 e3       	ldi	r23, 0x38	; 56
     41c:	8b ea       	ldi	r24, 0xAB	; 171
     41e:	98 e3       	ldi	r25, 0x38	; 56
     420:	0e 94 6b 19 	call	0x32d6	; 0x32d6 <strncpy>
     424:	12 c0       	rjmp	.+36     	; 0x44a <__LOCK_REGION_LENGTH__+0x4a>
     426:	88 23       	and	r24, r24
     428:	81 f0       	breq	.+32     	; 0x44a <__LOCK_REGION_LENGTH__+0x4a>
     42a:	80 91 ab 38 	lds	r24, 0x38AB	; 0x8038ab <command2>
     42e:	88 23       	and	r24, r24
     430:	61 f0       	breq	.+24     	; 0x44a <__LOCK_REGION_LENGTH__+0x4a>
     432:	80 91 79 38 	lds	r24, 0x3879	; 0x803879 <command3>
     436:	81 11       	cpse	r24, r1
     438:	08 c0       	rjmp	.+16     	; 0x44a <__LOCK_REGION_LENGTH__+0x4a>
     43a:	42 e3       	ldi	r20, 0x32	; 50
     43c:	50 e0       	ldi	r21, 0x00	; 0
     43e:	6e e0       	ldi	r22, 0x0E	; 14
     440:	78 e3       	ldi	r23, 0x38	; 56
     442:	89 e7       	ldi	r24, 0x79	; 121
     444:	98 e3       	ldi	r25, 0x38	; 56
     446:	0e 94 6b 19 	call	0x32d6	; 0x32d6 <strncpy>
     44a:	82 e3       	ldi	r24, 0x32	; 50
     44c:	ee e0       	ldi	r30, 0x0E	; 14
     44e:	f8 e3       	ldi	r31, 0x38	; 56
     450:	df 01       	movw	r26, r30
     452:	1d 92       	st	X+, r1
     454:	8a 95       	dec	r24
     456:	e9 f7       	brne	.-6      	; 0x452 <__LOCK_REGION_LENGTH__+0x52>
     458:	81 e0       	ldi	r24, 0x01	; 1
     45a:	90 e0       	ldi	r25, 0x00	; 0
     45c:	80 93 76 38 	sts	0x3876, r24	; 0x803876 <flag>
     460:	90 93 77 38 	sts	0x3877, r25	; 0x803877 <flag+0x1>
     464:	ff 91       	pop	r31
     466:	ef 91       	pop	r30
     468:	bf 91       	pop	r27
     46a:	af 91       	pop	r26
     46c:	9f 91       	pop	r25
     46e:	8f 91       	pop	r24
     470:	7f 91       	pop	r23
     472:	6f 91       	pop	r22
     474:	5f 91       	pop	r21
     476:	4f 91       	pop	r20
     478:	3f 91       	pop	r19
     47a:	2f 91       	pop	r18
     47c:	0f 90       	pop	r0
     47e:	0f be       	out	0x3f, r0	; 63
     480:	0f 90       	pop	r0
     482:	1f 90       	pop	r1
     484:	18 95       	reti

00000486 <write_EEPROM>:
     486:	fc 01       	movw	r30, r24
     488:	60 83       	st	Z, r22
     48a:	8d e9       	ldi	r24, 0x9D	; 157
     48c:	84 bf       	out	0x34, r24	; 52
     48e:	83 e0       	ldi	r24, 0x03	; 3
     490:	80 93 00 10 	sts	0x1000, r24	; 0x801000 <__RODATA_PM_OFFSET__+0x7f9000>
     494:	08 95       	ret

00000496 <read_EEPROM>:
     496:	fc 01       	movw	r30, r24
     498:	80 81       	ld	r24, Z
     49a:	08 95       	ret

0000049c <ADC0_init>:
     49c:	e0 e0       	ldi	r30, 0x00	; 0
     49e:	f6 e0       	ldi	r31, 0x06	; 6
     4a0:	81 e0       	ldi	r24, 0x01	; 1
     4a2:	81 83       	std	Z+1, r24	; 0x01
     4a4:	86 e0       	ldi	r24, 0x06	; 6
     4a6:	82 83       	std	Z+2, r24	; 0x02
     4a8:	08 95       	ret

000004aa <ADC0_read>:
     4aa:	81 e1       	ldi	r24, 0x11	; 17
     4ac:	80 93 0a 06 	sts	0x060A, r24	; 0x80060a <__RODATA_PM_OFFSET__+0x7f860a>
     4b0:	80 91 05 06 	lds	r24, 0x0605	; 0x800605 <__RODATA_PM_OFFSET__+0x7f8605>
     4b4:	80 ff       	sbrs	r24, 0
     4b6:	fc cf       	rjmp	.-8      	; 0x4b0 <ADC0_read+0x6>
     4b8:	e0 e0       	ldi	r30, 0x00	; 0
     4ba:	f6 e0       	ldi	r31, 0x06	; 6
     4bc:	81 e0       	ldi	r24, 0x01	; 1
     4be:	85 83       	std	Z+5, r24	; 0x05
     4c0:	80 89       	ldd	r24, Z+16	; 0x10
     4c2:	91 89       	ldd	r25, Z+17	; 0x11
     4c4:	a2 89       	ldd	r26, Z+18	; 0x12
     4c6:	b3 89       	ldd	r27, Z+19	; 0x13
     4c8:	08 95       	ret

000004ca <get_Voltage>:
     4ca:	8f 92       	push	r8
     4cc:	9f 92       	push	r9
     4ce:	af 92       	push	r10
     4d0:	bf 92       	push	r11
     4d2:	cf 92       	push	r12
     4d4:	df 92       	push	r13
     4d6:	ef 92       	push	r14
     4d8:	ff 92       	push	r15
     4da:	cf 93       	push	r28
     4dc:	df 93       	push	r29
     4de:	86 30       	cpi	r24, 0x06	; 6
     4e0:	91 05       	cpc	r25, r1
     4e2:	c9 f0       	breq	.+50     	; 0x516 <get_Voltage+0x4c>
     4e4:	89 30       	cpi	r24, 0x09	; 9
     4e6:	91 05       	cpc	r25, r1
     4e8:	19 f0       	breq	.+6      	; 0x4f0 <get_Voltage+0x26>
     4ea:	05 97       	sbiw	r24, 0x05	; 5
     4ec:	71 f4       	brne	.+28     	; 0x50a <get_Voltage+0x40>
     4ee:	07 c0       	rjmp	.+14     	; 0x4fe <get_Voltage+0x34>
     4f0:	e0 e0       	ldi	r30, 0x00	; 0
     4f2:	f6 e0       	ldi	r31, 0x06	; 6
     4f4:	81 e0       	ldi	r24, 0x01	; 1
     4f6:	80 83       	st	Z, r24
     4f8:	89 e0       	ldi	r24, 0x09	; 9
     4fa:	84 87       	std	Z+12, r24	; 0x0c
     4fc:	06 c0       	rjmp	.+12     	; 0x50a <get_Voltage+0x40>
     4fe:	e0 e0       	ldi	r30, 0x00	; 0
     500:	f6 e0       	ldi	r31, 0x06	; 6
     502:	81 e0       	ldi	r24, 0x01	; 1
     504:	80 83       	st	Z, r24
     506:	85 e0       	ldi	r24, 0x05	; 5
     508:	84 87       	std	Z+12, r24	; 0x0c
     50a:	c0 e0       	ldi	r28, 0x00	; 0
     50c:	d0 e0       	ldi	r29, 0x00	; 0
     50e:	c1 2c       	mov	r12, r1
     510:	d1 2c       	mov	r13, r1
     512:	76 01       	movw	r14, r12
     514:	37 c0       	rjmp	.+110    	; 0x584 <get_Voltage+0xba>
     516:	e0 e0       	ldi	r30, 0x00	; 0
     518:	f6 e0       	ldi	r31, 0x06	; 6
     51a:	81 e0       	ldi	r24, 0x01	; 1
     51c:	80 83       	st	Z, r24
     51e:	86 e0       	ldi	r24, 0x06	; 6
     520:	84 87       	std	Z+12, r24	; 0x0c
     522:	f3 cf       	rjmp	.-26     	; 0x50a <get_Voltage+0x40>
     524:	0e 94 55 02 	call	0x4aa	; 0x4aa <ADC0_read>
     528:	bc 01       	movw	r22, r24
     52a:	80 e0       	ldi	r24, 0x00	; 0
     52c:	90 e0       	ldi	r25, 0x00	; 0
     52e:	0e 94 7e 0f 	call	0x1efc	; 0x1efc <__floatunsisf>
     532:	20 e0       	ldi	r18, 0x00	; 0
     534:	30 e0       	ldi	r19, 0x00	; 0
     536:	40 e2       	ldi	r20, 0x20	; 32
     538:	50 e4       	ldi	r21, 0x40	; 64
     53a:	0e 94 35 10 	call	0x206a	; 0x206a <__mulsf3>
     53e:	20 e0       	ldi	r18, 0x00	; 0
     540:	30 e0       	ldi	r19, 0x00	; 0
     542:	40 e8       	ldi	r20, 0x80	; 128
     544:	59 e3       	ldi	r21, 0x39	; 57
     546:	0e 94 35 10 	call	0x206a	; 0x206a <__mulsf3>
     54a:	20 e0       	ldi	r18, 0x00	; 0
     54c:	30 e0       	ldi	r19, 0x00	; 0
     54e:	40 e0       	ldi	r20, 0x00	; 0
     550:	5f e3       	ldi	r21, 0x3F	; 63
     552:	0e 94 35 10 	call	0x206a	; 0x206a <__mulsf3>
     556:	4b 01       	movw	r8, r22
     558:	5c 01       	movw	r10, r24
     55a:	20 e0       	ldi	r18, 0x00	; 0
     55c:	30 e0       	ldi	r19, 0x00	; 0
     55e:	40 e0       	ldi	r20, 0x00	; 0
     560:	5f e3       	ldi	r21, 0x3F	; 63
     562:	c7 01       	movw	r24, r14
     564:	b6 01       	movw	r22, r12
     566:	0e 94 35 10 	call	0x206a	; 0x206a <__mulsf3>
     56a:	9b 01       	movw	r18, r22
     56c:	ac 01       	movw	r20, r24
     56e:	c5 01       	movw	r24, r10
     570:	b4 01       	movw	r22, r8
     572:	0e 94 9b 0e 	call	0x1d36	; 0x1d36 <__addsf3>
     576:	6b 01       	movw	r12, r22
     578:	7c 01       	movw	r14, r24
     57a:	21 96       	adiw	r28, 0x01	; 1
     57c:	83 e3       	ldi	r24, 0x33	; 51
     57e:	93 e0       	ldi	r25, 0x03	; 3
     580:	01 97       	sbiw	r24, 0x01	; 1
     582:	f1 f7       	brne	.-4      	; 0x580 <get_Voltage+0xb6>
     584:	c4 31       	cpi	r28, 0x14	; 20
     586:	d1 05       	cpc	r29, r1
     588:	6c f2       	brlt	.-102    	; 0x524 <get_Voltage+0x5a>
     58a:	e0 e0       	ldi	r30, 0x00	; 0
     58c:	f6 e0       	ldi	r31, 0x06	; 6
     58e:	80 81       	ld	r24, Z
     590:	8e 7f       	andi	r24, 0xFE	; 254
     592:	80 83       	st	Z, r24
     594:	c7 01       	movw	r24, r14
     596:	b6 01       	movw	r22, r12
     598:	df 91       	pop	r29
     59a:	cf 91       	pop	r28
     59c:	ff 90       	pop	r15
     59e:	ef 90       	pop	r14
     5a0:	df 90       	pop	r13
     5a2:	cf 90       	pop	r12
     5a4:	bf 90       	pop	r11
     5a6:	af 90       	pop	r10
     5a8:	9f 90       	pop	r9
     5aa:	8f 90       	pop	r8
     5ac:	08 95       	ret

000005ae <TWI_GetStatus>:
     5ae:	80 e0       	ldi	r24, 0x00	; 0
     5b0:	90 91 a5 08 	lds	r25, 0x08A5	; 0x8008a5 <__RODATA_PM_OFFSET__+0x7f88a5>
     5b4:	90 7c       	andi	r25, 0xC0	; 192
     5b6:	29 f4       	brne	.+10     	; 0x5c2 <TWI_GetStatus+0x14>
     5b8:	90 91 a5 08 	lds	r25, 0x08A5	; 0x8008a5 <__RODATA_PM_OFFSET__+0x7f88a5>
     5bc:	9c 70       	andi	r25, 0x0C	; 12
     5be:	19 f4       	brne	.+6      	; 0x5c6 <TWI_GetStatus+0x18>
     5c0:	03 c0       	rjmp	.+6      	; 0x5c8 <TWI_GetStatus+0x1a>
     5c2:	81 e0       	ldi	r24, 0x01	; 1
     5c4:	01 c0       	rjmp	.+2      	; 0x5c8 <TWI_GetStatus+0x1a>
     5c6:	82 e0       	ldi	r24, 0x02	; 2
     5c8:	88 23       	and	r24, r24
     5ca:	91 f3       	breq	.-28     	; 0x5b0 <TWI_GetStatus+0x2>
     5cc:	08 95       	ret

000005ce <get_I2CValue>:

int get_I2CValue(int verbose){
     5ce:	ef 92       	push	r14
     5d0:	ff 92       	push	r15
     5d2:	0f 93       	push	r16
     5d4:	1f 93       	push	r17
     5d6:	cf 93       	push	r28
     5d8:	df 93       	push	r29
     5da:	7c 01       	movw	r14, r24
	#else
		//round up by default
		__ticks_dc = (uint32_t)(ceil(fabs(__tmp)));
	#endif

	__builtin_avr_delay_cycles(__ticks_dc);
     5dc:	8f ef       	ldi	r24, 0xFF	; 255
     5de:	9f e0       	ldi	r25, 0x0F	; 15
     5e0:	01 97       	sbiw	r24, 0x01	; 1
     5e2:	f1 f7       	brne	.-4      	; 0x5e0 <get_I2CValue+0x12>
     5e4:	00 c0       	rjmp	.+0      	; 0x5e6 <get_I2CValue+0x18>
     5e6:	00 00       	nop
	int Press;
	
	
	//printf("**************************\r");
	
	TWI0.MBAUD = TWI_BAUD;
     5e8:	e0 ea       	ldi	r30, 0xA0	; 160
     5ea:	f8 e0       	ldi	r31, 0x08	; 8
     5ec:	16 82       	std	Z+6, r1	; 0x06
	
	TWI0.MCTRLA = (1 << TWI_ENABLE_bp) | (1 << TWI_SMEN_bp);
     5ee:	93 e0       	ldi	r25, 0x03	; 3
     5f0:	93 83       	std	Z+3, r25	; 0x03
	//TWI0.MCTRLA = TWI_ENABLE_bm | TWI_SMEN_bm;
	
	//TWI0.MSTATUS = 0x00;
	TWI0.MADDR = 0x00;
     5f2:	17 82       	std	Z+7, r1	; 0x07
	
	TWI0.MDATA = 0x00;
     5f4:	10 86       	std	Z+8, r1	; 0x08
	TWI0.MCTRLB = TWI_FLUSH_bm;
     5f6:	88 e0       	ldi	r24, 0x08	; 8
     5f8:	84 83       	std	Z+4, r24	; 0x04
	TWI0.MSTATUS |= (TWI_RIF_bm | TWI_WIF_bm);
     5fa:	85 81       	ldd	r24, Z+5	; 0x05
     5fc:	80 6c       	ori	r24, 0xC0	; 192
     5fe:	85 83       	std	Z+5, r24	; 0x05
	TWI0.MSTATUS = TWI_BUSSTATE_IDLE_gc;
     600:	81 e0       	ldi	r24, 0x01	; 1
     602:	85 83       	std	Z+5, r24	; 0x05
	
	TWI0.MADDR = 0x51;
     604:	81 e5       	ldi	r24, 0x51	; 81
     606:	87 83       	std	Z+7, r24	; 0x07
	//while(!(TWI0.MSTATUS & TWI_RXACK_bm) != 1);
	TWI0.MCTRLB = TWI_MCMD_STOP_gc;
     608:	94 83       	std	Z+4, r25	; 0x04
	if (verbose == 1){
     60a:	91 e0       	ldi	r25, 0x01	; 1
     60c:	e9 16       	cp	r14, r25
     60e:	f1 04       	cpc	r15, r1
     610:	a9 f4       	brne	.+42     	; 0x63c <get_I2CValue+0x6e>
		printf("Inicia no Add: %x, Status %d\r", TWI0_MDATA, TWI0_MSTATUS);
     612:	90 91 a5 08 	lds	r25, 0x08A5	; 0x8008a5 <__RODATA_PM_OFFSET__+0x7f88a5>
     616:	80 91 a8 08 	lds	r24, 0x08A8	; 0x8008a8 <__RODATA_PM_OFFSET__+0x7f88a8>
     61a:	1f 92       	push	r1
     61c:	9f 93       	push	r25
     61e:	1f 92       	push	r1
     620:	8f 93       	push	r24
     622:	86 e3       	ldi	r24, 0x36	; 54
     624:	96 eb       	ldi	r25, 0xB6	; 182
     626:	9f 93       	push	r25
     628:	8f 93       	push	r24
     62a:	0e 94 40 1a 	call	0x3480	; 0x3480 <printf>
     62e:	0f 90       	pop	r0
     630:	0f 90       	pop	r0
     632:	0f 90       	pop	r0
     634:	0f 90       	pop	r0
     636:	0f 90       	pop	r0
     638:	0f 90       	pop	r0
     63a:	04 c0       	rjmp	.+8      	; 0x644 <get_I2CValue+0x76>
     63c:	8a ed       	ldi	r24, 0xDA	; 218
     63e:	8a 95       	dec	r24
     640:	f1 f7       	brne	.-4      	; 0x63e <get_I2CValue+0x70>
     642:	00 c0       	rjmp	.+0      	; 0x644 <get_I2CValue+0x76>
		_delay_ms(20);
	}	
	
	//printf("Inicia no Add: %x, Status %d\r", TWI0_MDATA, TWI0_MSTATUS);
	//_delay_ms(50);
	TWI0.MCTRLB = TWI_FLUSH_bm;
     644:	e0 ea       	ldi	r30, 0xA0	; 160
     646:	f8 e0       	ldi	r31, 0x08	; 8
     648:	88 e0       	ldi	r24, 0x08	; 8
     64a:	84 83       	std	Z+4, r24	; 0x04
	TWI0.MSTATUS |= (TWI_RIF_bm | TWI_WIF_bm);
     64c:	85 81       	ldd	r24, Z+5	; 0x05
     64e:	80 6c       	ori	r24, 0xC0	; 192
     650:	85 83       	std	Z+5, r24	; 0x05
	if (verbose == 1){
     652:	91 e0       	ldi	r25, 0x01	; 1
     654:	e9 16       	cp	r14, r25
     656:	f1 04       	cpc	r15, r1
     658:	29 f0       	breq	.+10     	; 0x664 <get_I2CValue+0x96>
     65a:	89 e9       	ldi	r24, 0x99	; 153
     65c:	91 e0       	ldi	r25, 0x01	; 1
     65e:	01 97       	sbiw	r24, 0x01	; 1
     660:	f1 f7       	brne	.-4      	; 0x65e <get_I2CValue+0x90>
     662:	00 c0       	rjmp	.+0      	; 0x664 <get_I2CValue+0x96>
		//printf("Inicia no Add: %x, Status %d\r", TWI0_MDATA, TWI0_MSTATUS);
	}
	else{
		_delay_ms(50);
	}
	TWI0.MADDR = 0x51;
     664:	81 e5       	ldi	r24, 0x51	; 81
     666:	80 93 a7 08 	sts	0x08A7, r24	; 0x8008a7 <__RODATA_PM_OFFSET__+0x7f88a7>
	
	//printf("Inicia no Add: %x, Status %d\r", TWI0_MDATA, TWI0_MSTATUS);
	//_delay_ms(210);
	
	
	if(TWI_GetStatus() == TWI_READY){//&& RX_acked()){
     66a:	0e 94 d7 02 	call	0x5ae	; 0x5ae <TWI_GetStatus>
     66e:	81 30       	cpi	r24, 0x01	; 1
     670:	09 f0       	breq	.+2      	; 0x674 <get_I2CValue+0xa6>
     672:	44 c0       	rjmp	.+136    	; 0x6fc <get_I2CValue+0x12e>
		
		P_high = TWI0.MDATA;
     674:	80 91 a8 08 	lds	r24, 0x08A8	; 0x8008a8 <__RODATA_PM_OFFSET__+0x7f88a8>
     678:	08 2f       	mov	r16, r24
     67a:	10 e0       	ldi	r17, 0x00	; 0
		
		if (verbose == 1){
     67c:	91 e0       	ldi	r25, 0x01	; 1
     67e:	e9 16       	cp	r14, r25
     680:	f1 04       	cpc	r15, r1
     682:	99 f4       	brne	.+38     	; 0x6aa <get_I2CValue+0xdc>
			printf("Phigh: %x, Status %d\r", P_high, TWI0_MSTATUS);
     684:	90 91 a5 08 	lds	r25, 0x08A5	; 0x8008a5 <__RODATA_PM_OFFSET__+0x7f88a5>
     688:	1f 92       	push	r1
     68a:	9f 93       	push	r25
     68c:	1f 92       	push	r1
     68e:	8f 93       	push	r24
     690:	84 e5       	ldi	r24, 0x54	; 84
     692:	96 eb       	ldi	r25, 0xB6	; 182
     694:	9f 93       	push	r25
     696:	8f 93       	push	r24
     698:	0e 94 40 1a 	call	0x3480	; 0x3480 <printf>
     69c:	0f 90       	pop	r0
     69e:	0f 90       	pop	r0
     6a0:	0f 90       	pop	r0
     6a2:	0f 90       	pop	r0
     6a4:	0f 90       	pop	r0
     6a6:	0f 90       	pop	r0
     6a8:	05 c0       	rjmp	.+10     	; 0x6b4 <get_I2CValue+0xe6>
     6aa:	89 e9       	ldi	r24, 0x99	; 153
     6ac:	91 e0       	ldi	r25, 0x01	; 1
     6ae:	01 97       	sbiw	r24, 0x01	; 1
     6b0:	f1 f7       	brne	.-4      	; 0x6ae <get_I2CValue+0xe0>
     6b2:	00 c0       	rjmp	.+0      	; 0x6b4 <get_I2CValue+0xe6>
		}
		else{
			_delay_ms(50);
		}
		
		TWI0.MCTRLB = (0 << TWI_ACKACT_bp) | TWI_MCMD_STOP_gc;
     6b4:	e0 ea       	ldi	r30, 0xA0	; 160
     6b6:	f8 e0       	ldi	r31, 0x08	; 8
     6b8:	83 e0       	ldi	r24, 0x03	; 3
     6ba:	84 83       	std	Z+4, r24	; 0x04
		P_low = TWI0.MDATA;
     6bc:	80 85       	ldd	r24, Z+8	; 0x08
     6be:	c8 2f       	mov	r28, r24
     6c0:	d0 e0       	ldi	r29, 0x00	; 0
		
		if (verbose == 1){
     6c2:	91 e0       	ldi	r25, 0x01	; 1
     6c4:	e9 16       	cp	r14, r25
     6c6:	f1 04       	cpc	r15, r1
     6c8:	99 f4       	brne	.+38     	; 0x6f0 <get_I2CValue+0x122>
			printf("Plow: %x, Status %d\r", P_low, TWI0_MSTATUS);
     6ca:	90 91 a5 08 	lds	r25, 0x08A5	; 0x8008a5 <__RODATA_PM_OFFSET__+0x7f88a5>
     6ce:	1f 92       	push	r1
     6d0:	9f 93       	push	r25
     6d2:	1f 92       	push	r1
     6d4:	8f 93       	push	r24
     6d6:	8a e6       	ldi	r24, 0x6A	; 106
     6d8:	96 eb       	ldi	r25, 0xB6	; 182
     6da:	9f 93       	push	r25
     6dc:	8f 93       	push	r24
     6de:	0e 94 40 1a 	call	0x3480	; 0x3480 <printf>
     6e2:	0f 90       	pop	r0
     6e4:	0f 90       	pop	r0
     6e6:	0f 90       	pop	r0
     6e8:	0f 90       	pop	r0
     6ea:	0f 90       	pop	r0
     6ec:	0f 90       	pop	r0
     6ee:	0a c0       	rjmp	.+20     	; 0x704 <get_I2CValue+0x136>
     6f0:	89 e9       	ldi	r24, 0x99	; 153
     6f2:	91 e0       	ldi	r25, 0x01	; 1
     6f4:	01 97       	sbiw	r24, 0x01	; 1
     6f6:	f1 f7       	brne	.-4      	; 0x6f4 <get_I2CValue+0x126>
     6f8:	00 c0       	rjmp	.+0      	; 0x6fa <get_I2CValue+0x12c>
     6fa:	04 c0       	rjmp	.+8      	; 0x704 <get_I2CValue+0x136>
}

int get_I2CValue(int verbose){
	_delay_ms(500);
	int P_high = 0;
	int P_low = 0;
     6fc:	c0 e0       	ldi	r28, 0x00	; 0
     6fe:	d0 e0       	ldi	r29, 0x00	; 0
	return (!(TWI0.MSTATUS & TWI_RXACK_bm));
}

int get_I2CValue(int verbose){
	_delay_ms(500);
	int P_high = 0;
     700:	00 e0       	ldi	r16, 0x00	; 0
     702:	10 e0       	ldi	r17, 0x00	; 0
		}
	}
	
	//TWI0.MCTRLB = TWI_MCMD_STOP_gc;
	
	TWI0.MCTRLA &= ~TWI_ENABLE_bm;
     704:	e0 ea       	ldi	r30, 0xA0	; 160
     706:	f8 e0       	ldi	r31, 0x08	; 8
     708:	83 81       	ldd	r24, Z+3	; 0x03
     70a:	8e 7f       	andi	r24, 0xFE	; 254
     70c:	83 83       	std	Z+3, r24	; 0x03
	
	
	//sensor chico
	Press = (P_high << 8) | P_low ;
     70e:	10 2f       	mov	r17, r16
     710:	00 27       	eor	r16, r16
     712:	c0 2b       	or	r28, r16
     714:	d1 2b       	or	r29, r17
	
	if (verbose == 1){
     716:	ea 94       	dec	r14
     718:	ef 28       	or	r14, r15
     71a:	61 f4       	brne	.+24     	; 0x734 <get_I2CValue+0x166>
		printf("Presion en RAW: %d\r", Press);
     71c:	df 93       	push	r29
     71e:	cf 93       	push	r28
     720:	8f e7       	ldi	r24, 0x7F	; 127
     722:	96 eb       	ldi	r25, 0xB6	; 182
     724:	9f 93       	push	r25
     726:	8f 93       	push	r24
     728:	0e 94 40 1a 	call	0x3480	; 0x3480 <printf>
     72c:	0f 90       	pop	r0
     72e:	0f 90       	pop	r0
     730:	0f 90       	pop	r0
     732:	0f 90       	pop	r0
	
	//printf("Presion en RAW: %d\r", Press);
	
	//Presion = ((Press - 1000)/2000)*10.2;
	//printf("----------------------\r");
}
     734:	ce 01       	movw	r24, r28
     736:	df 91       	pop	r29
     738:	cf 91       	pop	r28
     73a:	1f 91       	pop	r17
     73c:	0f 91       	pop	r16
     73e:	ff 90       	pop	r15
     740:	ef 90       	pop	r14
     742:	08 95       	ret

00000744 <get_PressureADC>:
#include "I2C.h"

#ifndef PRESSURE_H_
#define PRESSURE_H_

float get_PressureADC(float vol, int posicion){
     744:	cf 92       	push	r12
     746:	df 92       	push	r13
     748:	ef 92       	push	r14
     74a:	ff 92       	push	r15
     74c:	0f 93       	push	r16
     74e:	1f 93       	push	r17
     750:	cf 93       	push	r28
     752:	df 93       	push	r29
     754:	cd b7       	in	r28, 0x3d	; 61
     756:	de b7       	in	r29, 0x3e	; 62
     758:	2c 97       	sbiw	r28, 0x0c	; 12
     75a:	cd bf       	out	0x3d, r28	; 61
     75c:	de bf       	out	0x3e, r29	; 62
     75e:	6b 01       	movw	r12, r22
     760:	7c 01       	movw	r14, r24
	Flotante Zero,A,B;
	float Pressure = 0;
	
	if(posicion == 1){
     762:	41 30       	cpi	r20, 0x01	; 1
     764:	51 05       	cpc	r21, r1
     766:	71 f5       	brne	.+92     	; 0x7c4 <get_PressureADC+0x80>
     768:	27 c0       	rjmp	.+78     	; 0x7b8 <get_PressureADC+0x74>
		for (int i = 0; i <= 3; i++){
			Zero.dato[i] = read_EEPROM(5364+i);
     76a:	c8 01       	movw	r24, r16
     76c:	8c 50       	subi	r24, 0x0C	; 12
     76e:	9b 4e       	sbci	r25, 0xEB	; 235
     770:	0e 94 4b 02 	call	0x496	; 0x496 <read_EEPROM>
     774:	e1 e0       	ldi	r30, 0x01	; 1
     776:	f0 e0       	ldi	r31, 0x00	; 0
     778:	ec 0f       	add	r30, r28
     77a:	fd 1f       	adc	r31, r29
     77c:	e0 0f       	add	r30, r16
     77e:	f1 1f       	adc	r31, r17
     780:	80 83       	st	Z, r24
			A.dato[i] = read_EEPROM(5368+i);
     782:	c8 01       	movw	r24, r16
     784:	88 50       	subi	r24, 0x08	; 8
     786:	9b 4e       	sbci	r25, 0xEB	; 235
     788:	0e 94 4b 02 	call	0x496	; 0x496 <read_EEPROM>
     78c:	e5 e0       	ldi	r30, 0x05	; 5
     78e:	f0 e0       	ldi	r31, 0x00	; 0
     790:	ec 0f       	add	r30, r28
     792:	fd 1f       	adc	r31, r29
     794:	e0 0f       	add	r30, r16
     796:	f1 1f       	adc	r31, r17
     798:	80 83       	st	Z, r24
			B.dato[i] = read_EEPROM(5372+i);
     79a:	c8 01       	movw	r24, r16
     79c:	84 50       	subi	r24, 0x04	; 4
     79e:	9b 4e       	sbci	r25, 0xEB	; 235
     7a0:	0e 94 4b 02 	call	0x496	; 0x496 <read_EEPROM>
     7a4:	e9 e0       	ldi	r30, 0x09	; 9
     7a6:	f0 e0       	ldi	r31, 0x00	; 0
     7a8:	ec 0f       	add	r30, r28
     7aa:	fd 1f       	adc	r31, r29
     7ac:	e0 0f       	add	r30, r16
     7ae:	f1 1f       	adc	r31, r17
     7b0:	80 83       	st	Z, r24
float get_PressureADC(float vol, int posicion){
	Flotante Zero,A,B;
	float Pressure = 0;
	
	if(posicion == 1){
		for (int i = 0; i <= 3; i++){
     7b2:	0f 5f       	subi	r16, 0xFF	; 255
     7b4:	1f 4f       	sbci	r17, 0xFF	; 255
     7b6:	02 c0       	rjmp	.+4      	; 0x7bc <get_PressureADC+0x78>
     7b8:	00 e0       	ldi	r16, 0x00	; 0
     7ba:	10 e0       	ldi	r17, 0x00	; 0
     7bc:	04 30       	cpi	r16, 0x04	; 4
     7be:	11 05       	cpc	r17, r1
     7c0:	a4 f2       	brlt	.-88     	; 0x76a <get_PressureADC+0x26>
     7c2:	30 c0       	rjmp	.+96     	; 0x824 <__DATA_REGION_LENGTH__+0x24>
			A.dato[i] = read_EEPROM(5368+i);
			B.dato[i] = read_EEPROM(5372+i);
		}	
	}
	else{
		if(posicion == 2){
     7c4:	42 30       	cpi	r20, 0x02	; 2
     7c6:	51 05       	cpc	r21, r1
     7c8:	69 f5       	brne	.+90     	; 0x824 <__DATA_REGION_LENGTH__+0x24>
     7ca:	27 c0       	rjmp	.+78     	; 0x81a <__DATA_REGION_LENGTH__+0x1a>
			for (int i = 0; i <= 3; i++){
				Zero.dato[i] = read_EEPROM(5352+i);
     7cc:	c8 01       	movw	r24, r16
     7ce:	88 51       	subi	r24, 0x18	; 24
     7d0:	9b 4e       	sbci	r25, 0xEB	; 235
     7d2:	0e 94 4b 02 	call	0x496	; 0x496 <read_EEPROM>
     7d6:	e1 e0       	ldi	r30, 0x01	; 1
     7d8:	f0 e0       	ldi	r31, 0x00	; 0
     7da:	ec 0f       	add	r30, r28
     7dc:	fd 1f       	adc	r31, r29
     7de:	e0 0f       	add	r30, r16
     7e0:	f1 1f       	adc	r31, r17
     7e2:	80 83       	st	Z, r24
				A.dato[i] = read_EEPROM(5356+i);
     7e4:	c8 01       	movw	r24, r16
     7e6:	84 51       	subi	r24, 0x14	; 20
     7e8:	9b 4e       	sbci	r25, 0xEB	; 235
     7ea:	0e 94 4b 02 	call	0x496	; 0x496 <read_EEPROM>
     7ee:	e5 e0       	ldi	r30, 0x05	; 5
     7f0:	f0 e0       	ldi	r31, 0x00	; 0
     7f2:	ec 0f       	add	r30, r28
     7f4:	fd 1f       	adc	r31, r29
     7f6:	e0 0f       	add	r30, r16
     7f8:	f1 1f       	adc	r31, r17
     7fa:	80 83       	st	Z, r24
				B.dato[i] = read_EEPROM(5360+i);
     7fc:	c8 01       	movw	r24, r16
     7fe:	80 51       	subi	r24, 0x10	; 16
     800:	9b 4e       	sbci	r25, 0xEB	; 235
     802:	0e 94 4b 02 	call	0x496	; 0x496 <read_EEPROM>
     806:	e9 e0       	ldi	r30, 0x09	; 9
     808:	f0 e0       	ldi	r31, 0x00	; 0
     80a:	ec 0f       	add	r30, r28
     80c:	fd 1f       	adc	r31, r29
     80e:	e0 0f       	add	r30, r16
     810:	f1 1f       	adc	r31, r17
     812:	80 83       	st	Z, r24
			B.dato[i] = read_EEPROM(5372+i);
		}	
	}
	else{
		if(posicion == 2){
			for (int i = 0; i <= 3; i++){
     814:	0f 5f       	subi	r16, 0xFF	; 255
     816:	1f 4f       	sbci	r17, 0xFF	; 255
     818:	02 c0       	rjmp	.+4      	; 0x81e <__DATA_REGION_LENGTH__+0x1e>
     81a:	00 e0       	ldi	r16, 0x00	; 0
     81c:	10 e0       	ldi	r17, 0x00	; 0
     81e:	04 30       	cpi	r16, 0x04	; 4
     820:	11 05       	cpc	r17, r1
     822:	a4 f2       	brlt	.-88     	; 0x7cc <get_PressureADC+0x88>
				B.dato[i] = read_EEPROM(5360+i);
			}
		}
	}
	
	if(vol <=  Zero.f){
     824:	69 81       	ldd	r22, Y+1	; 0x01
     826:	7a 81       	ldd	r23, Y+2	; 0x02
     828:	8b 81       	ldd	r24, Y+3	; 0x03
     82a:	9c 81       	ldd	r25, Y+4	; 0x04
     82c:	a7 01       	movw	r20, r14
     82e:	96 01       	movw	r18, r12
     830:	0e 94 30 10 	call	0x2060	; 0x2060 <__gesf2>
     834:	88 23       	and	r24, r24
     836:	ac f4       	brge	.+42     	; 0x862 <__DATA_REGION_LENGTH__+0x62>
		Pressure = 0.0;
	}
	else{
		Pressure = (A.f * vol - B.f)*10.2;
     838:	2d 81       	ldd	r18, Y+5	; 0x05
     83a:	3e 81       	ldd	r19, Y+6	; 0x06
     83c:	4f 81       	ldd	r20, Y+7	; 0x07
     83e:	58 85       	ldd	r21, Y+8	; 0x08
     840:	c7 01       	movw	r24, r14
     842:	b6 01       	movw	r22, r12
     844:	0e 94 35 10 	call	0x206a	; 0x206a <__mulsf3>
     848:	29 85       	ldd	r18, Y+9	; 0x09
     84a:	3a 85       	ldd	r19, Y+10	; 0x0a
     84c:	4b 85       	ldd	r20, Y+11	; 0x0b
     84e:	5c 85       	ldd	r21, Y+12	; 0x0c
     850:	0e 94 9a 0e 	call	0x1d34	; 0x1d34 <__subsf3>
     854:	23 e3       	ldi	r18, 0x33	; 51
     856:	33 e3       	ldi	r19, 0x33	; 51
     858:	43 e2       	ldi	r20, 0x23	; 35
     85a:	51 e4       	ldi	r21, 0x41	; 65
     85c:	0e 94 35 10 	call	0x206a	; 0x206a <__mulsf3>
     860:	03 c0       	rjmp	.+6      	; 0x868 <__DATA_REGION_LENGTH__+0x68>
			}
		}
	}
	
	if(vol <=  Zero.f){
		Pressure = 0.0;
     862:	60 e0       	ldi	r22, 0x00	; 0
     864:	70 e0       	ldi	r23, 0x00	; 0
     866:	cb 01       	movw	r24, r22
	}
	else{
		Pressure = (A.f * vol - B.f)*10.2;
	}
	return Pressure;	
}
     868:	2c 96       	adiw	r28, 0x0c	; 12
     86a:	cd bf       	out	0x3d, r28	; 61
     86c:	de bf       	out	0x3e, r29	; 62
     86e:	df 91       	pop	r29
     870:	cf 91       	pop	r28
     872:	1f 91       	pop	r17
     874:	0f 91       	pop	r16
     876:	ff 90       	pop	r15
     878:	ef 90       	pop	r14
     87a:	df 90       	pop	r13
     87c:	cf 90       	pop	r12
     87e:	08 95       	ret

00000880 <get_PressureI2C>:

float get_PressureI2C(int Press, int x){
     880:	0f 93       	push	r16
     882:	1f 93       	push	r17
     884:	cf 93       	push	r28
     886:	df 93       	push	r29
     888:	8c 01       	movw	r16, r24
     88a:	eb 01       	movw	r28, r22
	float P = 0;
	if(x == 1){
     88c:	61 30       	cpi	r22, 0x01	; 1
     88e:	71 05       	cpc	r23, r1
     890:	d1 f4       	brne	.+52     	; 0x8c6 <get_PressureI2C+0x46>
		if(Press < 1000){
     892:	08 3e       	cpi	r16, 0xE8	; 232
     894:	83 e0       	ldi	r24, 0x03	; 3
     896:	18 07       	cpc	r17, r24
     898:	d4 f0       	brlt	.+52     	; 0x8ce <get_PressureI2C+0x4e>
			P = 0;
		}
		else{
			int a = Press-1000;
     89a:	b8 01       	movw	r22, r16
     89c:	68 5e       	subi	r22, 0xE8	; 232
     89e:	73 40       	sbci	r23, 0x03	; 3
			P = (a*10.2)/2000;
     8a0:	07 2e       	mov	r0, r23
     8a2:	00 0c       	add	r0, r0
     8a4:	88 0b       	sbc	r24, r24
     8a6:	99 0b       	sbc	r25, r25
     8a8:	0e 94 80 0f 	call	0x1f00	; 0x1f00 <__floatsisf>
     8ac:	23 e3       	ldi	r18, 0x33	; 51
     8ae:	33 e3       	ldi	r19, 0x33	; 51
     8b0:	43 e2       	ldi	r20, 0x23	; 35
     8b2:	51 e4       	ldi	r21, 0x41	; 65
     8b4:	0e 94 35 10 	call	0x206a	; 0x206a <__mulsf3>
     8b8:	20 e0       	ldi	r18, 0x00	; 0
     8ba:	30 e0       	ldi	r19, 0x00	; 0
     8bc:	4a ef       	ldi	r20, 0xFA	; 250
     8be:	54 e4       	ldi	r21, 0x44	; 68
     8c0:	0e 94 0c 0f 	call	0x1e18	; 0x1e18 <__divsf3>
     8c4:	07 c0       	rjmp	.+14     	; 0x8d4 <get_PressureI2C+0x54>
	}
	return Pressure;	
}

float get_PressureI2C(int Press, int x){
	float P = 0;
     8c6:	60 e0       	ldi	r22, 0x00	; 0
     8c8:	70 e0       	ldi	r23, 0x00	; 0
     8ca:	cb 01       	movw	r24, r22
     8cc:	03 c0       	rjmp	.+6      	; 0x8d4 <get_PressureI2C+0x54>
	if(x == 1){
		if(Press < 1000){
			P = 0;
     8ce:	60 e0       	ldi	r22, 0x00	; 0
     8d0:	70 e0       	ldi	r23, 0x00	; 0
     8d2:	cb 01       	movw	r24, r22
			int a = Press-1000;
			P = (a*10.2)/2000;
			//printf("Presion-1000: %d\r", a);
		}
	}
	if(x == 2){
     8d4:	22 97       	sbiw	r28, 0x02	; 2
     8d6:	b9 f4       	brne	.+46     	; 0x906 <get_PressureI2C+0x86>
		if(Press < 1000){
     8d8:	08 3e       	cpi	r16, 0xE8	; 232
     8da:	83 e0       	ldi	r24, 0x03	; 3
     8dc:	18 07       	cpc	r17, r24
     8de:	84 f0       	brlt	.+32     	; 0x900 <get_PressureI2C+0x80>
			P = 0;
		}
		else{
			int a = Press-1000;
     8e0:	b8 01       	movw	r22, r16
     8e2:	68 5e       	subi	r22, 0xE8	; 232
     8e4:	73 40       	sbci	r23, 0x03	; 3
			P = a/66.66;
     8e6:	07 2e       	mov	r0, r23
     8e8:	00 0c       	add	r0, r0
     8ea:	88 0b       	sbc	r24, r24
     8ec:	99 0b       	sbc	r25, r25
     8ee:	0e 94 80 0f 	call	0x1f00	; 0x1f00 <__floatsisf>
     8f2:	2c ee       	ldi	r18, 0xEC	; 236
     8f4:	31 e5       	ldi	r19, 0x51	; 81
     8f6:	45 e8       	ldi	r20, 0x85	; 133
     8f8:	52 e4       	ldi	r21, 0x42	; 66
     8fa:	0e 94 0c 0f 	call	0x1e18	; 0x1e18 <__divsf3>
     8fe:	03 c0       	rjmp	.+6      	; 0x906 <get_PressureI2C+0x86>
			//printf("Presion-1000: %d\r", a);
		}
	}
	if(x == 2){
		if(Press < 1000){
			P = 0;
     900:	60 e0       	ldi	r22, 0x00	; 0
     902:	70 e0       	ldi	r23, 0x00	; 0
     904:	cb 01       	movw	r24, r22
			P = a/66.66;
			//printf("Presion-1000: %d\r", a);
		}
	}
	return P;
}
     906:	df 91       	pop	r29
     908:	cf 91       	pop	r28
     90a:	1f 91       	pop	r17
     90c:	0f 91       	pop	r16
     90e:	08 95       	ret

00000910 <get_LevelADC>:

float get_LevelADC(float vol, int posicion){
     910:	4f 92       	push	r4
     912:	5f 92       	push	r5
     914:	6f 92       	push	r6
     916:	7f 92       	push	r7
     918:	8f 92       	push	r8
     91a:	9f 92       	push	r9
     91c:	af 92       	push	r10
     91e:	bf 92       	push	r11
     920:	cf 92       	push	r12
     922:	df 92       	push	r13
     924:	ef 92       	push	r14
     926:	ff 92       	push	r15
     928:	0f 93       	push	r16
     92a:	1f 93       	push	r17
     92c:	cf 93       	push	r28
     92e:	df 93       	push	r29
     930:	cd b7       	in	r28, 0x3d	; 61
     932:	de b7       	in	r29, 0x3e	; 62
     934:	28 97       	sbiw	r28, 0x08	; 8
     936:	cd bf       	out	0x3d, r28	; 61
     938:	de bf       	out	0x3e, r29	; 62
     93a:	6b 01       	movw	r12, r22
     93c:	7c 01       	movw	r14, r24
	Flotante Zero,A,B,CL;
	float Level = 0;
	if(posicion == 1){
     93e:	41 30       	cpi	r20, 0x01	; 1
     940:	51 05       	cpc	r21, r1
     942:	11 f5       	brne	.+68     	; 0x988 <get_LevelADC+0x78>
     944:	1b c0       	rjmp	.+54     	; 0x97c <get_LevelADC+0x6c>
		for (int i = 0; i <= 3; i++){
			Zero.dato[i] = read_EEPROM(5364+i);
			A.dato[i] = read_EEPROM(5368+i);
     946:	c8 01       	movw	r24, r16
     948:	88 50       	subi	r24, 0x08	; 8
     94a:	9b 4e       	sbci	r25, 0xEB	; 235
     94c:	0e 94 4b 02 	call	0x496	; 0x496 <read_EEPROM>
     950:	e1 e0       	ldi	r30, 0x01	; 1
     952:	f0 e0       	ldi	r31, 0x00	; 0
     954:	ec 0f       	add	r30, r28
     956:	fd 1f       	adc	r31, r29
     958:	e0 0f       	add	r30, r16
     95a:	f1 1f       	adc	r31, r17
     95c:	80 83       	st	Z, r24
			B.dato[i] = read_EEPROM(5372+i);
     95e:	c8 01       	movw	r24, r16
     960:	84 50       	subi	r24, 0x04	; 4
     962:	9b 4e       	sbci	r25, 0xEB	; 235
     964:	0e 94 4b 02 	call	0x496	; 0x496 <read_EEPROM>
     968:	e5 e0       	ldi	r30, 0x05	; 5
     96a:	f0 e0       	ldi	r31, 0x00	; 0
     96c:	ec 0f       	add	r30, r28
     96e:	fd 1f       	adc	r31, r29
     970:	e0 0f       	add	r30, r16
     972:	f1 1f       	adc	r31, r17
     974:	80 83       	st	Z, r24

float get_LevelADC(float vol, int posicion){
	Flotante Zero,A,B,CL;
	float Level = 0;
	if(posicion == 1){
		for (int i = 0; i <= 3; i++){
     976:	0f 5f       	subi	r16, 0xFF	; 255
     978:	1f 4f       	sbci	r17, 0xFF	; 255
     97a:	02 c0       	rjmp	.+4      	; 0x980 <get_LevelADC+0x70>
     97c:	00 e0       	ldi	r16, 0x00	; 0
     97e:	10 e0       	ldi	r17, 0x00	; 0
     980:	04 30       	cpi	r16, 0x04	; 4
     982:	11 05       	cpc	r17, r1
     984:	04 f3       	brlt	.-64     	; 0x946 <get_LevelADC+0x36>
     986:	24 c0       	rjmp	.+72     	; 0x9d0 <get_LevelADC+0xc0>
			A.dato[i] = read_EEPROM(5368+i);
			B.dato[i] = read_EEPROM(5372+i);
		}
	}
	else{
		if(posicion == 2){
     988:	42 30       	cpi	r20, 0x02	; 2
     98a:	51 05       	cpc	r21, r1
     98c:	09 f5       	brne	.+66     	; 0x9d0 <get_LevelADC+0xc0>
     98e:	1b c0       	rjmp	.+54     	; 0x9c6 <get_LevelADC+0xb6>
			for (int i = 0; i <= 3; i++){
				Zero.dato[i] = read_EEPROM(5352+i);
				A.dato[i] = read_EEPROM(5356+i);
     990:	c8 01       	movw	r24, r16
     992:	84 51       	subi	r24, 0x14	; 20
     994:	9b 4e       	sbci	r25, 0xEB	; 235
     996:	0e 94 4b 02 	call	0x496	; 0x496 <read_EEPROM>
     99a:	e1 e0       	ldi	r30, 0x01	; 1
     99c:	f0 e0       	ldi	r31, 0x00	; 0
     99e:	ec 0f       	add	r30, r28
     9a0:	fd 1f       	adc	r31, r29
     9a2:	e0 0f       	add	r30, r16
     9a4:	f1 1f       	adc	r31, r17
     9a6:	80 83       	st	Z, r24
				B.dato[i] = read_EEPROM(5360+i);
     9a8:	c8 01       	movw	r24, r16
     9aa:	80 51       	subi	r24, 0x10	; 16
     9ac:	9b 4e       	sbci	r25, 0xEB	; 235
     9ae:	0e 94 4b 02 	call	0x496	; 0x496 <read_EEPROM>
     9b2:	e5 e0       	ldi	r30, 0x05	; 5
     9b4:	f0 e0       	ldi	r31, 0x00	; 0
     9b6:	ec 0f       	add	r30, r28
     9b8:	fd 1f       	adc	r31, r29
     9ba:	e0 0f       	add	r30, r16
     9bc:	f1 1f       	adc	r31, r17
     9be:	80 83       	st	Z, r24
			B.dato[i] = read_EEPROM(5372+i);
		}
	}
	else{
		if(posicion == 2){
			for (int i = 0; i <= 3; i++){
     9c0:	0f 5f       	subi	r16, 0xFF	; 255
     9c2:	1f 4f       	sbci	r17, 0xFF	; 255
     9c4:	02 c0       	rjmp	.+4      	; 0x9ca <get_LevelADC+0xba>
     9c6:	00 e0       	ldi	r16, 0x00	; 0
     9c8:	10 e0       	ldi	r17, 0x00	; 0
     9ca:	04 30       	cpi	r16, 0x04	; 4
     9cc:	11 05       	cpc	r17, r1
     9ce:	04 f3       	brlt	.-64     	; 0x990 <get_LevelADC+0x80>
				A.dato[i] = read_EEPROM(5356+i);
				B.dato[i] = read_EEPROM(5360+i);
			}
		}
	}
	if(vol < 0.911833){
     9d0:	23 ee       	ldi	r18, 0xE3	; 227
     9d2:	3d e6       	ldi	r19, 0x6D	; 109
     9d4:	49 e6       	ldi	r20, 0x69	; 105
     9d6:	5f e3       	ldi	r21, 0x3F	; 63
     9d8:	c7 01       	movw	r24, r14
     9da:	b6 01       	movw	r22, r12
     9dc:	0e 94 07 0f 	call	0x1e0e	; 0x1e0e <__cmpsf2>
     9e0:	88 23       	and	r24, r24
     9e2:	ac f1       	brlt	.+106    	; 0xa4e <get_LevelADC+0x13e>
		Level = 0;
	}
	else{
		Level = ((A.f * vol - B.f) * 0.703089) - ((A.f * 0.911833 - B.f) * 0.703089);
     9e4:	89 80       	ldd	r8, Y+1	; 0x01
     9e6:	9a 80       	ldd	r9, Y+2	; 0x02
     9e8:	ab 80       	ldd	r10, Y+3	; 0x03
     9ea:	bc 80       	ldd	r11, Y+4	; 0x04
     9ec:	a5 01       	movw	r20, r10
     9ee:	94 01       	movw	r18, r8
     9f0:	c7 01       	movw	r24, r14
     9f2:	b6 01       	movw	r22, r12
     9f4:	0e 94 35 10 	call	0x206a	; 0x206a <__mulsf3>
     9f8:	cd 80       	ldd	r12, Y+5	; 0x05
     9fa:	de 80       	ldd	r13, Y+6	; 0x06
     9fc:	ef 80       	ldd	r14, Y+7	; 0x07
     9fe:	f8 84       	ldd	r15, Y+8	; 0x08
     a00:	a7 01       	movw	r20, r14
     a02:	96 01       	movw	r18, r12
     a04:	0e 94 9a 0e 	call	0x1d34	; 0x1d34 <__subsf3>
     a08:	24 ea       	ldi	r18, 0xA4	; 164
     a0a:	3d ef       	ldi	r19, 0xFD	; 253
     a0c:	43 e3       	ldi	r20, 0x33	; 51
     a0e:	5f e3       	ldi	r21, 0x3F	; 63
     a10:	0e 94 35 10 	call	0x206a	; 0x206a <__mulsf3>
     a14:	2b 01       	movw	r4, r22
     a16:	3c 01       	movw	r6, r24
     a18:	23 ee       	ldi	r18, 0xE3	; 227
     a1a:	3d e6       	ldi	r19, 0x6D	; 109
     a1c:	49 e6       	ldi	r20, 0x69	; 105
     a1e:	5f e3       	ldi	r21, 0x3F	; 63
     a20:	c5 01       	movw	r24, r10
     a22:	b4 01       	movw	r22, r8
     a24:	0e 94 35 10 	call	0x206a	; 0x206a <__mulsf3>
     a28:	a7 01       	movw	r20, r14
     a2a:	96 01       	movw	r18, r12
     a2c:	0e 94 9a 0e 	call	0x1d34	; 0x1d34 <__subsf3>
     a30:	24 ea       	ldi	r18, 0xA4	; 164
     a32:	3d ef       	ldi	r19, 0xFD	; 253
     a34:	43 e3       	ldi	r20, 0x33	; 51
     a36:	5f e3       	ldi	r21, 0x3F	; 63
     a38:	0e 94 35 10 	call	0x206a	; 0x206a <__mulsf3>
     a3c:	9b 01       	movw	r18, r22
     a3e:	ac 01       	movw	r20, r24
     a40:	c3 01       	movw	r24, r6
     a42:	b2 01       	movw	r22, r4
     a44:	0e 94 9a 0e 	call	0x1d34	; 0x1d34 <__subsf3>
     a48:	6b 01       	movw	r12, r22
     a4a:	7c 01       	movw	r14, r24
     a4c:	03 c0       	rjmp	.+6      	; 0xa54 <get_LevelADC+0x144>
				B.dato[i] = read_EEPROM(5360+i);
			}
		}
	}
	if(vol < 0.911833){
		Level = 0;
     a4e:	c1 2c       	mov	r12, r1
     a50:	d1 2c       	mov	r13, r1
     a52:	76 01       	movw	r14, r12
	}
	else{
		Level = ((A.f * vol - B.f) * 0.703089) - ((A.f * 0.911833 - B.f) * 0.703089);
	}
	
	CL.dato[0] = read_EEPROM(5124);
     a54:	84 e0       	ldi	r24, 0x04	; 4
     a56:	94 e1       	ldi	r25, 0x14	; 20
     a58:	0e 94 4b 02 	call	0x496	; 0x496 <read_EEPROM>
     a5c:	98 2e       	mov	r9, r24
	CL.dato[1] = read_EEPROM(5125);
     a5e:	85 e0       	ldi	r24, 0x05	; 5
     a60:	94 e1       	ldi	r25, 0x14	; 20
     a62:	0e 94 4b 02 	call	0x496	; 0x496 <read_EEPROM>
     a66:	a8 2e       	mov	r10, r24
	CL.dato[2] = read_EEPROM(5126);
     a68:	86 e0       	ldi	r24, 0x06	; 6
     a6a:	94 e1       	ldi	r25, 0x14	; 20
     a6c:	0e 94 4b 02 	call	0x496	; 0x496 <read_EEPROM>
     a70:	b8 2e       	mov	r11, r24
	CL.dato[3] = read_EEPROM(5127);
     a72:	87 e0       	ldi	r24, 0x07	; 7
     a74:	94 e1       	ldi	r25, 0x14	; 20
     a76:	0e 94 4b 02 	call	0x496	; 0x496 <read_EEPROM>
	
	if(CL.f != 0 && (Level < CL.f)){
     a7a:	09 2d       	mov	r16, r9
     a7c:	7a 2c       	mov	r7, r10
     a7e:	6b 2c       	mov	r6, r11
     a80:	18 2f       	mov	r17, r24
     a82:	89 2c       	mov	r8, r9
     a84:	9a 2c       	mov	r9, r10
     a86:	ab 2c       	mov	r10, r11
     a88:	b8 2e       	mov	r11, r24
     a8a:	20 e0       	ldi	r18, 0x00	; 0
     a8c:	30 e0       	ldi	r19, 0x00	; 0
     a8e:	a9 01       	movw	r20, r18
     a90:	60 2f       	mov	r22, r16
     a92:	77 2d       	mov	r23, r7
     a94:	86 2d       	mov	r24, r6
     a96:	91 2f       	mov	r25, r17
     a98:	0e 94 07 0f 	call	0x1e0e	; 0x1e0e <__cmpsf2>
     a9c:	88 23       	and	r24, r24
     a9e:	91 f0       	breq	.+36     	; 0xac4 <get_LevelADC+0x1b4>
     aa0:	20 2f       	mov	r18, r16
     aa2:	37 2d       	mov	r19, r7
     aa4:	46 2d       	mov	r20, r6
     aa6:	51 2f       	mov	r21, r17
     aa8:	c7 01       	movw	r24, r14
     aaa:	b6 01       	movw	r22, r12
     aac:	0e 94 07 0f 	call	0x1e0e	; 0x1e0e <__cmpsf2>
     ab0:	88 23       	and	r24, r24
     ab2:	44 f4       	brge	.+16     	; 0xac4 <get_LevelADC+0x1b4>
		Level = (float)(CL.f - Level);
     ab4:	a7 01       	movw	r20, r14
     ab6:	96 01       	movw	r18, r12
     ab8:	c5 01       	movw	r24, r10
     aba:	b4 01       	movw	r22, r8
     abc:	0e 94 9a 0e 	call	0x1d34	; 0x1d34 <__subsf3>
     ac0:	6b 01       	movw	r12, r22
     ac2:	7c 01       	movw	r14, r24
	}
	
	return Level;
}
     ac4:	c7 01       	movw	r24, r14
     ac6:	b6 01       	movw	r22, r12
     ac8:	28 96       	adiw	r28, 0x08	; 8
     aca:	cd bf       	out	0x3d, r28	; 61
     acc:	de bf       	out	0x3e, r29	; 62
     ace:	df 91       	pop	r29
     ad0:	cf 91       	pop	r28
     ad2:	1f 91       	pop	r17
     ad4:	0f 91       	pop	r16
     ad6:	ff 90       	pop	r15
     ad8:	ef 90       	pop	r14
     ada:	df 90       	pop	r13
     adc:	cf 90       	pop	r12
     ade:	bf 90       	pop	r11
     ae0:	af 90       	pop	r10
     ae2:	9f 90       	pop	r9
     ae4:	8f 90       	pop	r8
     ae6:	7f 90       	pop	r7
     ae8:	6f 90       	pop	r6
     aea:	5f 90       	pop	r5
     aec:	4f 90       	pop	r4
     aee:	08 95       	ret

00000af0 <TCA0_init>:
volatile uint16_t minutos = 0;



void TCA0_init() {
	TCA0.SINGLE.PER = 16384; // Establece el valor de comparacin para aproximadamente 1 segundo
     af0:	e0 e0       	ldi	r30, 0x00	; 0
     af2:	fa e0       	ldi	r31, 0x0A	; 10
     af4:	80 e0       	ldi	r24, 0x00	; 0
     af6:	90 e4       	ldi	r25, 0x40	; 64
     af8:	86 a3       	std	Z+38, r24	; 0x26
     afa:	97 a3       	std	Z+39, r25	; 0x27
	TCA0.SINGLE.CTRLA = TCA_SINGLE_CLKSEL_DIV1_gc | TCA_SINGLE_ENABLE_bm; // Configura el prescaler a 1:1 y habilita el temporizador
     afc:	81 e0       	ldi	r24, 0x01	; 1
     afe:	80 83       	st	Z, r24
	TCA0.SINGLE.INTCTRL = TCA_SINGLE_OVF_bm; // Habilita la interrupcin por desbordamiento
     b00:	82 87       	std	Z+10, r24	; 0x0a
     b02:	08 95       	ret

00000b04 <TCA0_stop>:
}

void TCA0_stop(){
	TCA0.SINGLE.CTRLA &= ~TCA_SINGLE_ENABLE_bm;
     b04:	e0 e0       	ldi	r30, 0x00	; 0
     b06:	fa e0       	ldi	r31, 0x0A	; 10
     b08:	80 81       	ld	r24, Z
     b0a:	8e 7f       	andi	r24, 0xFE	; 254
     b0c:	80 83       	st	Z, r24
     b0e:	08 95       	ret

00000b10 <__vector_8>:
}


ISR(TCA0_OVF_vect){
     b10:	1f 92       	push	r1
     b12:	0f 92       	push	r0
     b14:	0f b6       	in	r0, 0x3f	; 63
     b16:	0f 92       	push	r0
     b18:	11 24       	eor	r1, r1
     b1a:	8f 93       	push	r24
     b1c:	9f 93       	push	r25
	hr++;
     b1e:	80 91 70 38 	lds	r24, 0x3870	; 0x803870 <hr>
     b22:	90 91 71 38 	lds	r25, 0x3871	; 0x803871 <hr+0x1>
     b26:	01 96       	adiw	r24, 0x01	; 1
     b28:	80 93 70 38 	sts	0x3870, r24	; 0x803870 <hr>
     b2c:	90 93 71 38 	sts	0x3871, r25	; 0x803871 <hr+0x1>
	ms500++;
     b30:	80 91 72 38 	lds	r24, 0x3872	; 0x803872 <ms500>
     b34:	90 91 73 38 	lds	r25, 0x3873	; 0x803873 <ms500+0x1>
     b38:	01 96       	adiw	r24, 0x01	; 1
     b3a:	80 93 72 38 	sts	0x3872, r24	; 0x803872 <ms500>
     b3e:	90 93 73 38 	sts	0x3873, r25	; 0x803873 <ms500+0x1>
	TCA0.SINGLE.INTFLAGS = 0x01;
     b42:	81 e0       	ldi	r24, 0x01	; 1
     b44:	80 93 0b 0a 	sts	0x0A0B, r24	; 0x800a0b <__RODATA_PM_OFFSET__+0x7f8a0b>
	if(verbose == 1){
     b48:	80 91 74 38 	lds	r24, 0x3874	; 0x803874 <verbose>
     b4c:	90 91 75 38 	lds	r25, 0x3875	; 0x803875 <verbose+0x1>
		printf("Caudal: %.2f\r", caudal);	
	}
	pulsos = 0;
	minutos++;
	wdt_reset();*/
};
     b50:	9f 91       	pop	r25
     b52:	8f 91       	pop	r24
     b54:	0f 90       	pop	r0
     b56:	0f be       	out	0x3f, r0	; 63
     b58:	0f 90       	pop	r0
     b5a:	1f 90       	pop	r1
     b5c:	18 95       	reti

00000b5e <__vector_24>:
float caudal = 0; /**< Variable who allocates the litter convertion pulse*/

/**
* @brief Interrupt Queue in port C
*/
ISR (PORTC_PORT_vect){
     b5e:	1f 92       	push	r1
     b60:	0f 92       	push	r0
     b62:	0f b6       	in	r0, 0x3f	; 63
     b64:	0f 92       	push	r0
     b66:	11 24       	eor	r1, r1
     b68:	cf 92       	push	r12
     b6a:	df 92       	push	r13
     b6c:	ef 92       	push	r14
     b6e:	ff 92       	push	r15
     b70:	2f 93       	push	r18
     b72:	3f 93       	push	r19
     b74:	4f 93       	push	r20
     b76:	5f 93       	push	r21
     b78:	6f 93       	push	r22
     b7a:	7f 93       	push	r23
     b7c:	8f 93       	push	r24
     b7e:	9f 93       	push	r25
     b80:	af 93       	push	r26
     b82:	bf 93       	push	r27
     b84:	ef 93       	push	r30
     b86:	ff 93       	push	r31
	
	if(PC0_INTERRUPT){
     b88:	80 91 49 04 	lds	r24, 0x0449	; 0x800449 <__RODATA_PM_OFFSET__+0x7f8449>
     b8c:	80 ff       	sbrs	r24, 0
     b8e:	06 c0       	rjmp	.+12     	; 0xb9c <__vector_24+0x3e>
		PC0_CLEAR_INTERRUPT_FLAG;
     b90:	e0 e4       	ldi	r30, 0x40	; 64
     b92:	f4 e0       	ldi	r31, 0x04	; 4
     b94:	81 85       	ldd	r24, Z+9	; 0x09
     b96:	81 70       	andi	r24, 0x01	; 1
     b98:	81 87       	std	Z+9, r24	; 0x09
     b9a:	9e c0       	rjmp	.+316    	; 0xcd8 <__vector_24+0x17a>
	}
	else{
		pulsos++;
     b9c:	80 91 6a 38 	lds	r24, 0x386A	; 0x80386a <pulsos>
     ba0:	90 91 6b 38 	lds	r25, 0x386B	; 0x80386b <pulsos+0x1>
     ba4:	01 96       	adiw	r24, 0x01	; 1
     ba6:	80 93 6a 38 	sts	0x386A, r24	; 0x80386a <pulsos>
     baa:	90 93 6b 38 	sts	0x386B, r25	; 0x80386b <pulsos+0x1>
		TCA0_stop(); /**< Stops the TCA counter */ 
     bae:	0e 94 82 05 	call	0xb04	; 0xb04 <TCA0_stop>
		wdt_reset();
     bb2:	a8 95       	wdr
		int Ent = read_EEPROM(5350); /**< Read the register 5350 to convert pulse to flow*/
     bb4:	86 ee       	ldi	r24, 0xE6	; 230
     bb6:	94 e1       	ldi	r25, 0x14	; 20
     bb8:	0e 94 4b 02 	call	0x496	; 0x496 <read_EEPROM>
		int mul = 0;
		switch(Ent){
     bbc:	82 30       	cpi	r24, 0x02	; 2
     bbe:	69 f0       	breq	.+26     	; 0xbda <__vector_24+0x7c>
     bc0:	83 30       	cpi	r24, 0x03	; 3
     bc2:	29 f0       	breq	.+10     	; 0xbce <__vector_24+0x70>
     bc4:	81 30       	cpi	r24, 0x01	; 1
     bc6:	31 f4       	brne	.+12     	; 0xbd4 <__vector_24+0x76>
			case 1:
			mul = 10;
     bc8:	2a e0       	ldi	r18, 0x0A	; 10
     bca:	30 e0       	ldi	r19, 0x00	; 0
     bcc:	08 c0       	rjmp	.+16     	; 0xbde <__vector_24+0x80>
			break;
			case 2:
			mul = 100;
			break;
			case 3:
			mul = 1000;
     bce:	28 ee       	ldi	r18, 0xE8	; 232
     bd0:	33 e0       	ldi	r19, 0x03	; 3
			break;
     bd2:	05 c0       	rjmp	.+10     	; 0xbde <__vector_24+0x80>
			default:
			mul = 1;
     bd4:	21 e0       	ldi	r18, 0x01	; 1
     bd6:	30 e0       	ldi	r19, 0x00	; 0
			break;
     bd8:	02 c0       	rjmp	.+4      	; 0xbde <__vector_24+0x80>
		switch(Ent){
			case 1:
			mul = 10;
			break;
			case 2:
			mul = 100;
     bda:	24 e6       	ldi	r18, 0x64	; 100
     bdc:	30 e0       	ldi	r19, 0x00	; 0
			break;
			default:
			mul = 1;
			break;
		}
		if(ms500 < 1 || ms500 > 20000){
     bde:	80 91 72 38 	lds	r24, 0x3872	; 0x803872 <ms500>
     be2:	90 91 73 38 	lds	r25, 0x3873	; 0x803873 <ms500+0x1>
     be6:	18 16       	cp	r1, r24
     be8:	19 06       	cpc	r1, r25
     bea:	3c f4       	brge	.+14     	; 0xbfa <__vector_24+0x9c>
     bec:	80 91 72 38 	lds	r24, 0x3872	; 0x803872 <ms500>
     bf0:	90 91 73 38 	lds	r25, 0x3873	; 0x803873 <ms500+0x1>
     bf4:	81 32       	cpi	r24, 0x21	; 33
     bf6:	9e 44       	sbci	r25, 0x4E	; 78
     bf8:	4c f0       	brlt	.+18     	; 0xc0c <__vector_24+0xae>
			caudal = 0;
     bfa:	10 92 66 38 	sts	0x3866, r1	; 0x803866 <caudal>
     bfe:	10 92 67 38 	sts	0x3867, r1	; 0x803867 <caudal+0x1>
     c02:	10 92 68 38 	sts	0x3868, r1	; 0x803868 <caudal+0x2>
     c06:	10 92 69 38 	sts	0x3869, r1	; 0x803869 <caudal+0x3>
     c0a:	37 c0       	rjmp	.+110    	; 0xc7a <__vector_24+0x11c>
		}
		else{
			caudal = pulsos*mul/((float)ms500*0.5);
     c0c:	80 91 6a 38 	lds	r24, 0x386A	; 0x80386a <pulsos>
     c10:	90 91 6b 38 	lds	r25, 0x386B	; 0x80386b <pulsos+0x1>
     c14:	28 9f       	mul	r18, r24
     c16:	b0 01       	movw	r22, r0
     c18:	29 9f       	mul	r18, r25
     c1a:	70 0d       	add	r23, r0
     c1c:	38 9f       	mul	r19, r24
     c1e:	70 0d       	add	r23, r0
     c20:	11 24       	eor	r1, r1
     c22:	80 e0       	ldi	r24, 0x00	; 0
     c24:	90 e0       	ldi	r25, 0x00	; 0
     c26:	0e 94 7e 0f 	call	0x1efc	; 0x1efc <__floatunsisf>
     c2a:	6b 01       	movw	r12, r22
     c2c:	7c 01       	movw	r14, r24
     c2e:	60 91 72 38 	lds	r22, 0x3872	; 0x803872 <ms500>
     c32:	70 91 73 38 	lds	r23, 0x3873	; 0x803873 <ms500+0x1>
     c36:	07 2e       	mov	r0, r23
     c38:	00 0c       	add	r0, r0
     c3a:	88 0b       	sbc	r24, r24
     c3c:	99 0b       	sbc	r25, r25
     c3e:	0e 94 80 0f 	call	0x1f00	; 0x1f00 <__floatsisf>
     c42:	20 e0       	ldi	r18, 0x00	; 0
     c44:	30 e0       	ldi	r19, 0x00	; 0
     c46:	40 e0       	ldi	r20, 0x00	; 0
     c48:	5f e3       	ldi	r21, 0x3F	; 63
     c4a:	0e 94 35 10 	call	0x206a	; 0x206a <__mulsf3>
     c4e:	9b 01       	movw	r18, r22
     c50:	ac 01       	movw	r20, r24
     c52:	c7 01       	movw	r24, r14
     c54:	b6 01       	movw	r22, r12
     c56:	0e 94 0c 0f 	call	0x1e18	; 0x1e18 <__divsf3>
     c5a:	60 93 66 38 	sts	0x3866, r22	; 0x803866 <caudal>
     c5e:	70 93 67 38 	sts	0x3867, r23	; 0x803867 <caudal+0x1>
     c62:	80 93 68 38 	sts	0x3868, r24	; 0x803868 <caudal+0x2>
     c66:	90 93 69 38 	sts	0x3869, r25	; 0x803869 <caudal+0x3>
			ms500 = 0;
     c6a:	10 92 72 38 	sts	0x3872, r1	; 0x803872 <ms500>
     c6e:	10 92 73 38 	sts	0x3873, r1	; 0x803873 <ms500+0x1>
			pulsos = 0;
     c72:	10 92 6a 38 	sts	0x386A, r1	; 0x80386a <pulsos>
     c76:	10 92 6b 38 	sts	0x386B, r1	; 0x80386b <pulsos+0x1>
		}
		wdt_reset();
     c7a:	a8 95       	wdr
		count++;
     c7c:	80 91 6c 38 	lds	r24, 0x386C	; 0x80386c <count>
     c80:	90 91 6d 38 	lds	r25, 0x386D	; 0x80386d <count+0x1>
     c84:	01 96       	adiw	r24, 0x01	; 1
     c86:	80 93 6c 38 	sts	0x386C, r24	; 0x80386c <count>
     c8a:	90 93 6d 38 	sts	0x386D, r25	; 0x80386d <count+0x1>
		if(verbose == 1){
     c8e:	80 91 74 38 	lds	r24, 0x3874	; 0x803874 <verbose>
     c92:	90 91 75 38 	lds	r25, 0x3875	; 0x803875 <verbose+0x1>
     c96:	01 97       	sbiw	r24, 0x01	; 1
     c98:	c1 f4       	brne	.+48     	; 0xcca <__vector_24+0x16c>
			printf("Caudal%.2f\r", caudal);
     c9a:	80 91 69 38 	lds	r24, 0x3869	; 0x803869 <caudal+0x3>
     c9e:	8f 93       	push	r24
     ca0:	80 91 68 38 	lds	r24, 0x3868	; 0x803868 <caudal+0x2>
     ca4:	8f 93       	push	r24
     ca6:	80 91 67 38 	lds	r24, 0x3867	; 0x803867 <caudal+0x1>
     caa:	8f 93       	push	r24
     cac:	80 91 66 38 	lds	r24, 0x3866	; 0x803866 <caudal>
     cb0:	8f 93       	push	r24
     cb2:	83 e9       	ldi	r24, 0x93	; 147
     cb4:	96 eb       	ldi	r25, 0xB6	; 182
     cb6:	9f 93       	push	r25
     cb8:	8f 93       	push	r24
     cba:	0e 94 40 1a 	call	0x3480	; 0x3480 <printf>
     cbe:	0f 90       	pop	r0
     cc0:	0f 90       	pop	r0
     cc2:	0f 90       	pop	r0
     cc4:	0f 90       	pop	r0
     cc6:	0f 90       	pop	r0
     cc8:	0f 90       	pop	r0
		}
		//executeCommand("MS\r");
		//memset(command, 0, MAX_COMMAND_LEN);
		PORTC_INTFLAGS |= PIN3_bm;
     cca:	e9 e4       	ldi	r30, 0x49	; 73
     ccc:	f4 e0       	ldi	r31, 0x04	; 4
     cce:	80 81       	ld	r24, Z
     cd0:	88 60       	ori	r24, 0x08	; 8
     cd2:	80 83       	st	Z, r24
		TCA0_init();
     cd4:	0e 94 78 05 	call	0xaf0	; 0xaf0 <TCA0_init>
		
		//count++;
		//printf("%u\r", count);
	}
}
     cd8:	ff 91       	pop	r31
     cda:	ef 91       	pop	r30
     cdc:	bf 91       	pop	r27
     cde:	af 91       	pop	r26
     ce0:	9f 91       	pop	r25
     ce2:	8f 91       	pop	r24
     ce4:	7f 91       	pop	r23
     ce6:	6f 91       	pop	r22
     ce8:	5f 91       	pop	r21
     cea:	4f 91       	pop	r20
     cec:	3f 91       	pop	r19
     cee:	2f 91       	pop	r18
     cf0:	ff 90       	pop	r15
     cf2:	ef 90       	pop	r14
     cf4:	df 90       	pop	r13
     cf6:	cf 90       	pop	r12
     cf8:	0f 90       	pop	r0
     cfa:	0f be       	out	0x3f, r0	; 63
     cfc:	0f 90       	pop	r0
     cfe:	1f 90       	pop	r1
     d00:	18 95       	reti

00000d02 <TCB0_init>:

volatile uint16_t seconds = 0;
volatile uint16_t minutes = 0;

void TCB0_init() {
	TCB0.CTRLA = TCB_CLKSEL_DIV1_gc;
     d02:	e0 e8       	ldi	r30, 0x80	; 128
     d04:	fa e0       	ldi	r31, 0x0A	; 10
     d06:	10 82       	st	Z, r1
	TCB0.CCMP = 32768;
     d08:	80 e0       	ldi	r24, 0x00	; 0
     d0a:	90 e8       	ldi	r25, 0x80	; 128
     d0c:	84 87       	std	Z+12, r24	; 0x0c
     d0e:	95 87       	std	Z+13, r25	; 0x0d
	TCB0.CTRLB = TCB_CNTMODE_INT_gc; // Habilita el modo de interrupcin
     d10:	11 82       	std	Z+1, r1	; 0x01
	TCB0.INTCTRL = TCB_CAPT_bm; // Habilita la interrupcin de captura
     d12:	81 e0       	ldi	r24, 0x01	; 1
     d14:	85 83       	std	Z+5, r24	; 0x05
     d16:	08 95       	ret

00000d18 <TCB0_start>:
	//TCB0.CTRLB = TCB_CNTMODE_INT_gc; // Habilita el modo de interrupcin
	//TCB0.INTCTRL = TCB_CAPT_bm; // Habilita la interrupcin de captura
}

void TCB0_start() {
	TCB0.CNT = 0; // Reinicia el contador
     d18:	e0 e8       	ldi	r30, 0x80	; 128
     d1a:	fa e0       	ldi	r31, 0x0A	; 10
     d1c:	12 86       	std	Z+10, r1	; 0x0a
     d1e:	13 86       	std	Z+11, r1	; 0x0b
	TCB0.CTRLA |= TCB_ENABLE_bm; // Inicia el temporizador
     d20:	80 81       	ld	r24, Z
     d22:	81 60       	ori	r24, 0x01	; 1
     d24:	80 83       	st	Z, r24
     d26:	08 95       	ret

00000d28 <TCB0_stop>:
}

void TCB0_stop() {
	TCB0.CTRLA &= ~TCB_ENABLE_bm; // Detiene el temporizador
     d28:	e0 e8       	ldi	r30, 0x80	; 128
     d2a:	fa e0       	ldi	r31, 0x0A	; 10
     d2c:	80 81       	ld	r24, Z
     d2e:	8e 7f       	andi	r24, 0xFE	; 254
     d30:	80 83       	st	Z, r24
     d32:	08 95       	ret

00000d34 <__vector_13>:
}



ISR(TCB0_INT_vect){
     d34:	1f 92       	push	r1
     d36:	0f 92       	push	r0
     d38:	0f b6       	in	r0, 0x3f	; 63
     d3a:	0f 92       	push	r0
     d3c:	11 24       	eor	r1, r1
     d3e:	2f 93       	push	r18
     d40:	3f 93       	push	r19
     d42:	4f 93       	push	r20
     d44:	5f 93       	push	r21
     d46:	6f 93       	push	r22
     d48:	7f 93       	push	r23
     d4a:	8f 93       	push	r24
     d4c:	9f 93       	push	r25
     d4e:	af 93       	push	r26
     d50:	bf 93       	push	r27
     d52:	ef 93       	push	r30
     d54:	ff 93       	push	r31
	seconds++;
     d56:	80 91 64 38 	lds	r24, 0x3864	; 0x803864 <seconds>
     d5a:	90 91 65 38 	lds	r25, 0x3865	; 0x803865 <seconds+0x1>
     d5e:	01 96       	adiw	r24, 0x01	; 1
     d60:	80 93 64 38 	sts	0x3864, r24	; 0x803864 <seconds>
     d64:	90 93 65 38 	sts	0x3865, r25	; 0x803865 <seconds+0x1>
	TCB0.INTFLAGS = 0x1;
     d68:	81 e0       	ldi	r24, 0x01	; 1
     d6a:	80 93 86 0a 	sts	0x0A86, r24	; 0x800a86 <__RODATA_PM_OFFSET__+0x7f8a86>
	wdt_reset();
     d6e:	a8 95       	wdr
	if(verbose == 1){
     d70:	80 91 74 38 	lds	r24, 0x3874	; 0x803874 <verbose>
     d74:	90 91 75 38 	lds	r25, 0x3875	; 0x803875 <verbose+0x1>
     d78:	01 97       	sbiw	r24, 0x01	; 1
     d7a:	81 f4       	brne	.+32     	; 0xd9c <__vector_13+0x68>
		printf("Tiempo: %d\r", seconds);	
     d7c:	80 91 64 38 	lds	r24, 0x3864	; 0x803864 <seconds>
     d80:	90 91 65 38 	lds	r25, 0x3865	; 0x803865 <seconds+0x1>
     d84:	9f 93       	push	r25
     d86:	8f 93       	push	r24
     d88:	8f e9       	ldi	r24, 0x9F	; 159
     d8a:	96 eb       	ldi	r25, 0xB6	; 182
     d8c:	9f 93       	push	r25
     d8e:	8f 93       	push	r24
     d90:	0e 94 40 1a 	call	0x3480	; 0x3480 <printf>
     d94:	0f 90       	pop	r0
     d96:	0f 90       	pop	r0
     d98:	0f 90       	pop	r0
     d9a:	0f 90       	pop	r0
	}
}
     d9c:	ff 91       	pop	r31
     d9e:	ef 91       	pop	r30
     da0:	bf 91       	pop	r27
     da2:	af 91       	pop	r26
     da4:	9f 91       	pop	r25
     da6:	8f 91       	pop	r24
     da8:	7f 91       	pop	r23
     daa:	6f 91       	pop	r22
     dac:	5f 91       	pop	r21
     dae:	4f 91       	pop	r20
     db0:	3f 91       	pop	r19
     db2:	2f 91       	pop	r18
     db4:	0f 90       	pop	r0
     db6:	0f be       	out	0x3f, r0	; 63
     db8:	0f 90       	pop	r0
     dba:	1f 90       	pop	r1
     dbc:	18 95       	reti

00000dbe <Sleep_Micro>:
#include "Command.h"

#define hora_acumulado 7200 //600

void Sleep_Micro(){
	CPU_CCP = CCP_IOREG_gc;
     dbe:	98 ed       	ldi	r25, 0xD8	; 216
     dc0:	94 bf       	out	0x34, r25	; 52
	WDT.CTRLA = WDT_WINDOW_OFF_gc;
     dc2:	a0 e0       	ldi	r26, 0x00	; 0
     dc4:	b1 e0       	ldi	r27, 0x01	; 1
     dc6:	1c 92       	st	X, r1
	
	set_sleep_mode(SLEEP_MODE_PWR_DOWN);
     dc8:	e0 e5       	ldi	r30, 0x50	; 80
     dca:	f0 e0       	ldi	r31, 0x00	; 0
     dcc:	80 81       	ld	r24, Z
     dce:	89 7f       	andi	r24, 0xF9	; 249
     dd0:	84 60       	ori	r24, 0x04	; 4
     dd2:	80 83       	st	Z, r24
	cli();
     dd4:	f8 94       	cli
	sleep_enable();
     dd6:	80 81       	ld	r24, Z
     dd8:	81 60       	ori	r24, 0x01	; 1
     dda:	80 83       	st	Z, r24
	
	
	sei();
     ddc:	78 94       	sei
	sleep_cpu();
     dde:	88 95       	sleep
	sleep_disable();
     de0:	80 81       	ld	r24, Z
     de2:	8e 7f       	andi	r24, 0xFE	; 254
     de4:	80 83       	st	Z, r24
	
	CPU_CCP = CCP_IOREG_gc;
     de6:	94 bf       	out	0x34, r25	; 52
	WDT.CTRLA = WDT_WINDOW_8KCLK_gc;
     de8:	80 eb       	ldi	r24, 0xB0	; 176
     dea:	8c 93       	st	X, r24
     dec:	08 95       	ret

00000dee <executeCommand>:
float bateria = 0;
int s1 = 0;
int s2 = 0;
char sensor1,sensor2;

void executeCommand(char *command){
     dee:	ef 92       	push	r14
     df0:	ff 92       	push	r15
     df2:	0f 93       	push	r16
     df4:	1f 93       	push	r17
     df6:	cf 93       	push	r28
     df8:	df 93       	push	r29
     dfa:	cd b7       	in	r28, 0x3d	; 61
     dfc:	de b7       	in	r29, 0x3e	; 62
     dfe:	2c 97       	sbiw	r28, 0x0c	; 12
     e00:	cd bf       	out	0x3d, r28	; 61
     e02:	de bf       	out	0x3e, r29	; 62
     e04:	8c 01       	movw	r16, r24
	if(strstr(command,"SM")!= NULL){
     e06:	6b ea       	ldi	r22, 0xAB	; 171
     e08:	76 eb       	ldi	r23, 0xB6	; 182
     e0a:	0e 94 85 19 	call	0x330a	; 0x330a <strstr>
     e0e:	89 2b       	or	r24, r25
     e10:	09 f4       	brne	.+2      	; 0xe14 <executeCommand+0x26>
     e12:	4a c0       	rjmp	.+148    	; 0xea8 <executeCommand+0xba>
		ADC0.CTRLA = (0 << ADC_ENABLE_bp);
     e14:	10 92 00 06 	sts	0x0600, r1	; 0x800600 <__RODATA_PM_OFFSET__+0x7f8600>
		TCA0.SPLIT.CTRLA = 0;
     e18:	10 92 00 0a 	sts	0x0A00, r1	; 0x800a00 <__RODATA_PM_OFFSET__+0x7f8a00>
		TCB0.CTRLA = 0;
     e1c:	10 92 80 0a 	sts	0x0A80, r1	; 0x800a80 <__RODATA_PM_OFFSET__+0x7f8a80>
		RTC.CTRLA = 0;
     e20:	10 92 40 01 	sts	0x0140, r1	; 0x800140 <__RODATA_PM_OFFSET__+0x7f8140>
		wdt_reset();
     e24:	a8 95       	wdr
		TCB0_stop();
     e26:	0e 94 94 06 	call	0xd28	; 0xd28 <TCB0_stop>
		vol1 = 0;
     e2a:	10 92 5e 38 	sts	0x385E, r1	; 0x80385e <vol1>
     e2e:	10 92 5f 38 	sts	0x385F, r1	; 0x80385f <vol1+0x1>
     e32:	10 92 60 38 	sts	0x3860, r1	; 0x803860 <vol1+0x2>
     e36:	10 92 61 38 	sts	0x3861, r1	; 0x803861 <vol1+0x3>
		vol2 = 0;
     e3a:	10 92 5a 38 	sts	0x385A, r1	; 0x80385a <vol2>
     e3e:	10 92 5b 38 	sts	0x385B, r1	; 0x80385b <vol2+0x1>
     e42:	10 92 5c 38 	sts	0x385C, r1	; 0x80385c <vol2+0x2>
     e46:	10 92 5d 38 	sts	0x385D, r1	; 0x80385d <vol2+0x3>
		presion1 = 0;
     e4a:	10 92 4e 38 	sts	0x384E, r1	; 0x80384e <presion1>
     e4e:	10 92 4f 38 	sts	0x384F, r1	; 0x80384f <presion1+0x1>
     e52:	10 92 50 38 	sts	0x3850, r1	; 0x803850 <presion1+0x2>
     e56:	10 92 51 38 	sts	0x3851, r1	; 0x803851 <presion1+0x3>
		presion2 = 0;
     e5a:	10 92 4a 38 	sts	0x384A, r1	; 0x80384a <presion2>
     e5e:	10 92 4b 38 	sts	0x384B, r1	; 0x80384b <presion2+0x1>
     e62:	10 92 4c 38 	sts	0x384C, r1	; 0x80384c <presion2+0x2>
     e66:	10 92 4d 38 	sts	0x384D, r1	; 0x80384d <presion2+0x3>
		bateria = 0;
     e6a:	10 92 46 38 	sts	0x3846, r1	; 0x803846 <bateria>
     e6e:	10 92 47 38 	sts	0x3847, r1	; 0x803847 <bateria+0x1>
     e72:	10 92 48 38 	sts	0x3848, r1	; 0x803848 <bateria+0x2>
     e76:	10 92 49 38 	sts	0x3849, r1	; 0x803849 <bateria+0x3>
     e7a:	86 e6       	ldi	r24, 0x66	; 102
     e7c:	96 e0       	ldi	r25, 0x06	; 6
     e7e:	01 97       	sbiw	r24, 0x01	; 1
     e80:	f1 f7       	brne	.-4      	; 0xe7e <executeCommand+0x90>
     e82:	00 00       	nop
		//printf("SM\r");
		_delay_ms(200);
		Sleep_Micro();
     e84:	0e 94 df 06 	call	0xdbe	; 0xdbe <Sleep_Micro>
     e88:	e6 e6       	ldi	r30, 0x66	; 102
     e8a:	f6 e0       	ldi	r31, 0x06	; 6
     e8c:	31 97       	sbiw	r30, 0x01	; 1
     e8e:	f1 f7       	brne	.-4      	; 0xe8c <executeCommand+0x9e>
     e90:	00 00       	nop
		_delay_ms(200);
		seconds = 0;
     e92:	10 92 64 38 	sts	0x3864, r1	; 0x803864 <seconds>
     e96:	10 92 65 38 	sts	0x3865, r1	; 0x803865 <seconds+0x1>
		send = 0;
     e9a:	10 92 62 38 	sts	0x3862, r1	; 0x803862 <send>
     e9e:	10 92 63 38 	sts	0x3863, r1	; 0x803863 <send+0x1>
		TCB0_start();	
     ea2:	0e 94 8c 06 	call	0xd18	; 0xd18 <TCB0_start>
     ea6:	28 c6       	rjmp	.+3152   	; 0x1af8 <executeCommand+0xd0a>
		
	}
	else{
		if(strstr(command,"EE")!=NULL){
     ea8:	6e ea       	ldi	r22, 0xAE	; 174
     eaa:	76 eb       	ldi	r23, 0xB6	; 182
     eac:	c8 01       	movw	r24, r16
     eae:	0e 94 85 19 	call	0x330a	; 0x330a <strstr>
     eb2:	89 2b       	or	r24, r25
     eb4:	41 f4       	brne	.+16     	; 0xec6 <executeCommand+0xd8>
     eb6:	1a c0       	rjmp	.+52     	; 0xeec <executeCommand+0xfe>
			for(int i = 5120; i < 5352; i++){
				*(uint8_t *)(i) = 0x0;
     eb8:	11 92       	st	Z+, r1
				CPU_CCP = CCP_SPM_gc;
     eba:	8d e9       	ldi	r24, 0x9D	; 157
     ebc:	84 bf       	out	0x34, r24	; 52
				NVMCTRL.CTRLA = NVMCTRL_CMD_PAGEERASEWRITE_gc;
     ebe:	83 e0       	ldi	r24, 0x03	; 3
     ec0:	80 93 00 10 	sts	0x1000, r24	; 0x801000 <__RODATA_PM_OFFSET__+0x7f9000>
     ec4:	02 c0       	rjmp	.+4      	; 0xeca <executeCommand+0xdc>
     ec6:	e0 e0       	ldi	r30, 0x00	; 0
     ec8:	f4 e1       	ldi	r31, 0x14	; 20
		TCB0_start();	
		
	}
	else{
		if(strstr(command,"EE")!=NULL){
			for(int i = 5120; i < 5352; i++){
     eca:	e8 3e       	cpi	r30, 0xE8	; 232
     ecc:	24 e1       	ldi	r18, 0x14	; 20
     ece:	f2 07       	cpc	r31, r18
     ed0:	9c f3       	brlt	.-26     	; 0xeb8 <executeCommand+0xca>
				*(uint8_t *)(i) = 0x0;
				CPU_CCP = CCP_SPM_gc;
				NVMCTRL.CTRLA = NVMCTRL_CMD_PAGEERASEWRITE_gc;
			}
			printf("%s",command);
     ed2:	1f 93       	push	r17
     ed4:	0f 93       	push	r16
     ed6:	81 eb       	ldi	r24, 0xB1	; 177
     ed8:	96 eb       	ldi	r25, 0xB6	; 182
     eda:	9f 93       	push	r25
     edc:	8f 93       	push	r24
     ede:	0e 94 40 1a 	call	0x3480	; 0x3480 <printf>
     ee2:	0f 90       	pop	r0
     ee4:	0f 90       	pop	r0
     ee6:	0f 90       	pop	r0
     ee8:	0f 90       	pop	r0
     eea:	06 c6       	rjmp	.+3084   	; 0x1af8 <executeCommand+0xd0a>
		}
		else{
			if(command[0] == 'W' && command[1] == 'S'){
     eec:	f8 01       	movw	r30, r16
     eee:	80 81       	ld	r24, Z
     ef0:	87 35       	cpi	r24, 0x57	; 87
     ef2:	d9 f4       	brne	.+54     	; 0xf2a <executeCommand+0x13c>
     ef4:	81 81       	ldd	r24, Z+1	; 0x01
     ef6:	83 35       	cpi	r24, 0x53	; 83
     ef8:	c1 f4       	brne	.+48     	; 0xf2a <executeCommand+0x13c>
				write_EEPROM(5348,command[2]);
     efa:	62 81       	ldd	r22, Z+2	; 0x02
     efc:	84 ee       	ldi	r24, 0xE4	; 228
     efe:	94 e1       	ldi	r25, 0x14	; 20
     f00:	0e 94 43 02 	call	0x486	; 0x486 <write_EEPROM>
				write_EEPROM(5349,command[3]);
     f04:	f8 01       	movw	r30, r16
     f06:	63 81       	ldd	r22, Z+3	; 0x03
     f08:	85 ee       	ldi	r24, 0xE5	; 229
     f0a:	94 e1       	ldi	r25, 0x14	; 20
     f0c:	0e 94 43 02 	call	0x486	; 0x486 <write_EEPROM>
				printf("%s",command);
     f10:	1f 93       	push	r17
     f12:	0f 93       	push	r16
     f14:	81 eb       	ldi	r24, 0xB1	; 177
     f16:	96 eb       	ldi	r25, 0xB6	; 182
     f18:	9f 93       	push	r25
     f1a:	8f 93       	push	r24
     f1c:	0e 94 40 1a 	call	0x3480	; 0x3480 <printf>
     f20:	0f 90       	pop	r0
     f22:	0f 90       	pop	r0
     f24:	0f 90       	pop	r0
     f26:	0f 90       	pop	r0
     f28:	e7 c5       	rjmp	.+3022   	; 0x1af8 <executeCommand+0xd0a>
			}
			else{
				if(strstr(command,"VS")!= NULL){
     f2a:	64 eb       	ldi	r22, 0xB4	; 180
     f2c:	76 eb       	ldi	r23, 0xB6	; 182
     f2e:	c8 01       	movw	r24, r16
     f30:	0e 94 85 19 	call	0x330a	; 0x330a <strstr>
     f34:	89 2b       	or	r24, r25
     f36:	d9 f1       	breq	.+118    	; 0xfae <executeCommand+0x1c0>
					char *token = strtok(command, ",");
     f38:	67 eb       	ldi	r22, 0xB7	; 183
     f3a:	76 eb       	ldi	r23, 0xB6	; 182
     f3c:	c8 01       	movw	r24, r16
     f3e:	0e 94 5d 19 	call	0x32ba	; 0x32ba <strtok>
					int i = 0;
					if(token != NULL){
     f42:	00 97       	sbiw	r24, 0x00	; 0
     f44:	f9 f4       	brne	.+62     	; 0xf84 <executeCommand+0x196>
     f46:	22 c0       	rjmp	.+68     	; 0xf8c <executeCommand+0x19e>
						while(token != NULL){
							switch(i){
     f48:	01 30       	cpi	r16, 0x01	; 1
     f4a:	11 05       	cpc	r17, r1
     f4c:	91 f4       	brne	.+36     	; 0xf72 <executeCommand+0x184>
								case 0:
								break;
								case 1:
								sscanf(token,"%d",&verbose);
     f4e:	24 e7       	ldi	r18, 0x74	; 116
     f50:	38 e3       	ldi	r19, 0x38	; 56
     f52:	3f 93       	push	r19
     f54:	2f 93       	push	r18
     f56:	29 eb       	ldi	r18, 0xB9	; 185
     f58:	36 eb       	ldi	r19, 0xB6	; 182
     f5a:	3f 93       	push	r19
     f5c:	2f 93       	push	r18
     f5e:	9f 93       	push	r25
     f60:	8f 93       	push	r24
     f62:	0e 94 86 1a 	call	0x350c	; 0x350c <sscanf>
								break;
     f66:	0f 90       	pop	r0
     f68:	0f 90       	pop	r0
     f6a:	0f 90       	pop	r0
     f6c:	0f 90       	pop	r0
     f6e:	0f 90       	pop	r0
     f70:	0f 90       	pop	r0
							}
							token = strtok(NULL, " ");
     f72:	6c eb       	ldi	r22, 0xBC	; 188
     f74:	76 eb       	ldi	r23, 0xB6	; 182
     f76:	80 e0       	ldi	r24, 0x00	; 0
     f78:	90 e0       	ldi	r25, 0x00	; 0
     f7a:	0e 94 5d 19 	call	0x32ba	; 0x32ba <strtok>
							i++;
     f7e:	0f 5f       	subi	r16, 0xFF	; 255
     f80:	1f 4f       	sbci	r17, 0xFF	; 255
     f82:	02 c0       	rjmp	.+4      	; 0xf88 <executeCommand+0x19a>
     f84:	00 e0       	ldi	r16, 0x00	; 0
     f86:	10 e0       	ldi	r17, 0x00	; 0
			else{
				if(strstr(command,"VS")!= NULL){
					char *token = strtok(command, ",");
					int i = 0;
					if(token != NULL){
						while(token != NULL){
     f88:	00 97       	sbiw	r24, 0x00	; 0
     f8a:	f1 f6       	brne	.-68     	; 0xf48 <executeCommand+0x15a>
							}
							token = strtok(NULL, " ");
							i++;
						}
					}
					printf("VS,%d\n",verbose);
     f8c:	80 91 74 38 	lds	r24, 0x3874	; 0x803874 <verbose>
     f90:	90 91 75 38 	lds	r25, 0x3875	; 0x803875 <verbose+0x1>
     f94:	9f 93       	push	r25
     f96:	8f 93       	push	r24
     f98:	8e eb       	ldi	r24, 0xBE	; 190
     f9a:	96 eb       	ldi	r25, 0xB6	; 182
     f9c:	9f 93       	push	r25
     f9e:	8f 93       	push	r24
     fa0:	0e 94 40 1a 	call	0x3480	; 0x3480 <printf>
     fa4:	0f 90       	pop	r0
     fa6:	0f 90       	pop	r0
     fa8:	0f 90       	pop	r0
     faa:	0f 90       	pop	r0
     fac:	a5 c5       	rjmp	.+2890   	; 0x1af8 <executeCommand+0xd0a>
				}
				else{
					if(strstr(command,"CN2")!= NULL){
     fae:	65 ec       	ldi	r22, 0xC5	; 197
     fb0:	76 eb       	ldi	r23, 0xB6	; 182
     fb2:	c8 01       	movw	r24, r16
     fb4:	0e 94 85 19 	call	0x330a	; 0x330a <strstr>
     fb8:	89 2b       	or	r24, r25
     fba:	09 f4       	brne	.+2      	; 0xfbe <executeCommand+0x1d0>
     fbc:	83 c0       	rjmp	.+262    	; 0x10c4 <executeCommand+0x2d6>
					Flotante Z1,A,B;
					char *token = strtok(command, ",");
     fbe:	67 eb       	ldi	r22, 0xB7	; 183
     fc0:	76 eb       	ldi	r23, 0xB6	; 182
     fc2:	c8 01       	movw	r24, r16
     fc4:	0e 94 5d 19 	call	0x32ba	; 0x32ba <strtok>
					int i = 0;
					if(token != NULL){
     fc8:	00 97       	sbiw	r24, 0x00	; 0
     fca:	c1 f5       	brne	.+112    	; 0x103c <executeCommand+0x24e>
     fcc:	3b c0       	rjmp	.+118    	; 0x1044 <executeCommand+0x256>
						while(token != NULL){
							switch(i){
     fce:	01 30       	cpi	r16, 0x01	; 1
     fd0:	11 05       	cpc	r17, r1
     fd2:	21 f0       	breq	.+8      	; 0xfdc <executeCommand+0x1ee>
     fd4:	02 30       	cpi	r16, 0x02	; 2
     fd6:	11 05       	cpc	r17, r1
     fd8:	a9 f0       	breq	.+42     	; 0x1004 <executeCommand+0x216>
     fda:	27 c0       	rjmp	.+78     	; 0x102a <executeCommand+0x23c>
								case 0:
								break;
								case 1:
								sscanf(token,"%f",&A.f);
     fdc:	9e 01       	movw	r18, r28
     fde:	2b 5f       	subi	r18, 0xFB	; 251
     fe0:	3f 4f       	sbci	r19, 0xFF	; 255
     fe2:	3f 93       	push	r19
     fe4:	2f 93       	push	r18
     fe6:	29 ec       	ldi	r18, 0xC9	; 201
     fe8:	36 eb       	ldi	r19, 0xB6	; 182
     fea:	3f 93       	push	r19
     fec:	2f 93       	push	r18
     fee:	9f 93       	push	r25
     ff0:	8f 93       	push	r24
     ff2:	0e 94 86 1a 	call	0x350c	; 0x350c <sscanf>
								break;
     ff6:	0f 90       	pop	r0
     ff8:	0f 90       	pop	r0
     ffa:	0f 90       	pop	r0
     ffc:	0f 90       	pop	r0
     ffe:	0f 90       	pop	r0
    1000:	0f 90       	pop	r0
    1002:	13 c0       	rjmp	.+38     	; 0x102a <executeCommand+0x23c>
								case 2:
								sscanf(token,"%f",&B.f);
    1004:	9e 01       	movw	r18, r28
    1006:	2f 5f       	subi	r18, 0xFF	; 255
    1008:	3f 4f       	sbci	r19, 0xFF	; 255
    100a:	3f 93       	push	r19
    100c:	2f 93       	push	r18
    100e:	29 ec       	ldi	r18, 0xC9	; 201
    1010:	36 eb       	ldi	r19, 0xB6	; 182
    1012:	3f 93       	push	r19
    1014:	2f 93       	push	r18
    1016:	9f 93       	push	r25
    1018:	8f 93       	push	r24
    101a:	0e 94 86 1a 	call	0x350c	; 0x350c <sscanf>
								break;
    101e:	0f 90       	pop	r0
    1020:	0f 90       	pop	r0
    1022:	0f 90       	pop	r0
    1024:	0f 90       	pop	r0
    1026:	0f 90       	pop	r0
    1028:	0f 90       	pop	r0
							}
							token = strtok(NULL, " ");
    102a:	6c eb       	ldi	r22, 0xBC	; 188
    102c:	76 eb       	ldi	r23, 0xB6	; 182
    102e:	80 e0       	ldi	r24, 0x00	; 0
    1030:	90 e0       	ldi	r25, 0x00	; 0
    1032:	0e 94 5d 19 	call	0x32ba	; 0x32ba <strtok>
							i++;
    1036:	0f 5f       	subi	r16, 0xFF	; 255
    1038:	1f 4f       	sbci	r17, 0xFF	; 255
    103a:	02 c0       	rjmp	.+4      	; 0x1040 <executeCommand+0x252>
    103c:	00 e0       	ldi	r16, 0x00	; 0
    103e:	10 e0       	ldi	r17, 0x00	; 0
					if(strstr(command,"CN2")!= NULL){
					Flotante Z1,A,B;
					char *token = strtok(command, ",");
					int i = 0;
					if(token != NULL){
						while(token != NULL){
    1040:	00 97       	sbiw	r24, 0x00	; 0
    1042:	29 f6       	brne	.-118    	; 0xfce <executeCommand+0x1e0>
							}
							token = strtok(NULL, " ");
							i++;
						}
					}
					Z1.f = B.f/A.f;
    1044:	69 81       	ldd	r22, Y+1	; 0x01
    1046:	7a 81       	ldd	r23, Y+2	; 0x02
    1048:	8b 81       	ldd	r24, Y+3	; 0x03
    104a:	9c 81       	ldd	r25, Y+4	; 0x04
    104c:	2d 81       	ldd	r18, Y+5	; 0x05
    104e:	3e 81       	ldd	r19, Y+6	; 0x06
    1050:	4f 81       	ldd	r20, Y+7	; 0x07
    1052:	58 85       	ldd	r21, Y+8	; 0x08
    1054:	0e 94 0c 0f 	call	0x1e18	; 0x1e18 <__divsf3>
    1058:	69 87       	std	Y+9, r22	; 0x09
    105a:	7a 87       	std	Y+10, r23	; 0x0a
    105c:	8b 87       	std	Y+11, r24	; 0x0b
    105e:	9c 87       	std	Y+12, r25	; 0x0c
					wdt_reset();
    1060:	a8 95       	wdr
					for(int i=0; i<=3; i++){
    1062:	00 e0       	ldi	r16, 0x00	; 0
    1064:	10 e0       	ldi	r17, 0x00	; 0
    1066:	26 c0       	rjmp	.+76     	; 0x10b4 <executeCommand+0x2c6>
						write_EEPROM(i+5352,Z1.dato[i]);
    1068:	e9 e0       	ldi	r30, 0x09	; 9
    106a:	f0 e0       	ldi	r31, 0x00	; 0
    106c:	ec 0f       	add	r30, r28
    106e:	fd 1f       	adc	r31, r29
    1070:	e0 0f       	add	r30, r16
    1072:	f1 1f       	adc	r31, r17
    1074:	60 81       	ld	r22, Z
    1076:	c8 01       	movw	r24, r16
    1078:	88 51       	subi	r24, 0x18	; 24
    107a:	9b 4e       	sbci	r25, 0xEB	; 235
    107c:	0e 94 43 02 	call	0x486	; 0x486 <write_EEPROM>
						write_EEPROM(i+5356,A.dato[i]);
    1080:	e5 e0       	ldi	r30, 0x05	; 5
    1082:	f0 e0       	ldi	r31, 0x00	; 0
    1084:	ec 0f       	add	r30, r28
    1086:	fd 1f       	adc	r31, r29
    1088:	e0 0f       	add	r30, r16
    108a:	f1 1f       	adc	r31, r17
    108c:	60 81       	ld	r22, Z
    108e:	c8 01       	movw	r24, r16
    1090:	84 51       	subi	r24, 0x14	; 20
    1092:	9b 4e       	sbci	r25, 0xEB	; 235
    1094:	0e 94 43 02 	call	0x486	; 0x486 <write_EEPROM>
						write_EEPROM(i+5360,B.dato[i]);
    1098:	e1 e0       	ldi	r30, 0x01	; 1
    109a:	f0 e0       	ldi	r31, 0x00	; 0
    109c:	ec 0f       	add	r30, r28
    109e:	fd 1f       	adc	r31, r29
    10a0:	e0 0f       	add	r30, r16
    10a2:	f1 1f       	adc	r31, r17
    10a4:	60 81       	ld	r22, Z
    10a6:	c8 01       	movw	r24, r16
    10a8:	80 51       	subi	r24, 0x10	; 16
    10aa:	9b 4e       	sbci	r25, 0xEB	; 235
    10ac:	0e 94 43 02 	call	0x486	; 0x486 <write_EEPROM>
							i++;
						}
					}
					Z1.f = B.f/A.f;
					wdt_reset();
					for(int i=0; i<=3; i++){
    10b0:	0f 5f       	subi	r16, 0xFF	; 255
    10b2:	1f 4f       	sbci	r17, 0xFF	; 255
    10b4:	04 30       	cpi	r16, 0x04	; 4
    10b6:	11 05       	cpc	r17, r1
    10b8:	bc f2       	brlt	.-82     	; 0x1068 <executeCommand+0x27a>
						write_EEPROM(i+5352,Z1.dato[i]);
						write_EEPROM(i+5356,A.dato[i]);
						write_EEPROM(i+5360,B.dato[i]);
						}
					printf("CN\n");
    10ba:	8c ec       	ldi	r24, 0xCC	; 204
    10bc:	96 eb       	ldi	r25, 0xB6	; 182
    10be:	0e 94 56 1a 	call	0x34ac	; 0x34ac <puts>
    10c2:	1a c5       	rjmp	.+2612   	; 0x1af8 <executeCommand+0xd0a>
					}
					else{
						if(strstr(command,"CN1")!= NULL){
    10c4:	6f ec       	ldi	r22, 0xCF	; 207
    10c6:	76 eb       	ldi	r23, 0xB6	; 182
    10c8:	c8 01       	movw	r24, r16
    10ca:	0e 94 85 19 	call	0x330a	; 0x330a <strstr>
    10ce:	89 2b       	or	r24, r25
    10d0:	09 f4       	brne	.+2      	; 0x10d4 <executeCommand+0x2e6>
    10d2:	83 c0       	rjmp	.+262    	; 0x11da <executeCommand+0x3ec>
							Flotante Z2,C,D;
							char *token = strtok(command, ",");
    10d4:	67 eb       	ldi	r22, 0xB7	; 183
    10d6:	76 eb       	ldi	r23, 0xB6	; 182
    10d8:	c8 01       	movw	r24, r16
    10da:	0e 94 5d 19 	call	0x32ba	; 0x32ba <strtok>
							int i = 0;
							if(token != NULL){
    10de:	00 97       	sbiw	r24, 0x00	; 0
    10e0:	c1 f5       	brne	.+112    	; 0x1152 <executeCommand+0x364>
    10e2:	3b c0       	rjmp	.+118    	; 0x115a <executeCommand+0x36c>
								while(token != NULL){
									switch(i){
    10e4:	01 30       	cpi	r16, 0x01	; 1
    10e6:	11 05       	cpc	r17, r1
    10e8:	21 f0       	breq	.+8      	; 0x10f2 <executeCommand+0x304>
    10ea:	02 30       	cpi	r16, 0x02	; 2
    10ec:	11 05       	cpc	r17, r1
    10ee:	a9 f0       	breq	.+42     	; 0x111a <executeCommand+0x32c>
    10f0:	27 c0       	rjmp	.+78     	; 0x1140 <executeCommand+0x352>
										case 0:
											break;
										case 1:
											sscanf(token,"%f",&C.f);
    10f2:	9e 01       	movw	r18, r28
    10f4:	2b 5f       	subi	r18, 0xFB	; 251
    10f6:	3f 4f       	sbci	r19, 0xFF	; 255
    10f8:	3f 93       	push	r19
    10fa:	2f 93       	push	r18
    10fc:	29 ec       	ldi	r18, 0xC9	; 201
    10fe:	36 eb       	ldi	r19, 0xB6	; 182
    1100:	3f 93       	push	r19
    1102:	2f 93       	push	r18
    1104:	9f 93       	push	r25
    1106:	8f 93       	push	r24
    1108:	0e 94 86 1a 	call	0x350c	; 0x350c <sscanf>
											break;
    110c:	0f 90       	pop	r0
    110e:	0f 90       	pop	r0
    1110:	0f 90       	pop	r0
    1112:	0f 90       	pop	r0
    1114:	0f 90       	pop	r0
    1116:	0f 90       	pop	r0
    1118:	13 c0       	rjmp	.+38     	; 0x1140 <executeCommand+0x352>
									case 2:
										sscanf(token,"%f",&D.f);
    111a:	9e 01       	movw	r18, r28
    111c:	2f 5f       	subi	r18, 0xFF	; 255
    111e:	3f 4f       	sbci	r19, 0xFF	; 255
    1120:	3f 93       	push	r19
    1122:	2f 93       	push	r18
    1124:	29 ec       	ldi	r18, 0xC9	; 201
    1126:	36 eb       	ldi	r19, 0xB6	; 182
    1128:	3f 93       	push	r19
    112a:	2f 93       	push	r18
    112c:	9f 93       	push	r25
    112e:	8f 93       	push	r24
    1130:	0e 94 86 1a 	call	0x350c	; 0x350c <sscanf>
										break;
    1134:	0f 90       	pop	r0
    1136:	0f 90       	pop	r0
    1138:	0f 90       	pop	r0
    113a:	0f 90       	pop	r0
    113c:	0f 90       	pop	r0
    113e:	0f 90       	pop	r0
									}
								token = strtok(NULL, " ");
    1140:	6c eb       	ldi	r22, 0xBC	; 188
    1142:	76 eb       	ldi	r23, 0xB6	; 182
    1144:	80 e0       	ldi	r24, 0x00	; 0
    1146:	90 e0       	ldi	r25, 0x00	; 0
    1148:	0e 94 5d 19 	call	0x32ba	; 0x32ba <strtok>
								i++;
    114c:	0f 5f       	subi	r16, 0xFF	; 255
    114e:	1f 4f       	sbci	r17, 0xFF	; 255
    1150:	02 c0       	rjmp	.+4      	; 0x1156 <executeCommand+0x368>
    1152:	00 e0       	ldi	r16, 0x00	; 0
    1154:	10 e0       	ldi	r17, 0x00	; 0
						if(strstr(command,"CN1")!= NULL){
							Flotante Z2,C,D;
							char *token = strtok(command, ",");
							int i = 0;
							if(token != NULL){
								while(token != NULL){
    1156:	00 97       	sbiw	r24, 0x00	; 0
    1158:	29 f6       	brne	.-118    	; 0x10e4 <executeCommand+0x2f6>
									}
								token = strtok(NULL, " ");
								i++;
							}
						}
						Z2.f = D.f/C.f;
    115a:	69 81       	ldd	r22, Y+1	; 0x01
    115c:	7a 81       	ldd	r23, Y+2	; 0x02
    115e:	8b 81       	ldd	r24, Y+3	; 0x03
    1160:	9c 81       	ldd	r25, Y+4	; 0x04
    1162:	2d 81       	ldd	r18, Y+5	; 0x05
    1164:	3e 81       	ldd	r19, Y+6	; 0x06
    1166:	4f 81       	ldd	r20, Y+7	; 0x07
    1168:	58 85       	ldd	r21, Y+8	; 0x08
    116a:	0e 94 0c 0f 	call	0x1e18	; 0x1e18 <__divsf3>
    116e:	69 87       	std	Y+9, r22	; 0x09
    1170:	7a 87       	std	Y+10, r23	; 0x0a
    1172:	8b 87       	std	Y+11, r24	; 0x0b
    1174:	9c 87       	std	Y+12, r25	; 0x0c
						wdt_reset();
    1176:	a8 95       	wdr
						for(int i=0; i<=3; i++){
    1178:	00 e0       	ldi	r16, 0x00	; 0
    117a:	10 e0       	ldi	r17, 0x00	; 0
    117c:	26 c0       	rjmp	.+76     	; 0x11ca <executeCommand+0x3dc>
							write_EEPROM(i+5364,Z2.dato[i]);
    117e:	e9 e0       	ldi	r30, 0x09	; 9
    1180:	f0 e0       	ldi	r31, 0x00	; 0
    1182:	ec 0f       	add	r30, r28
    1184:	fd 1f       	adc	r31, r29
    1186:	e0 0f       	add	r30, r16
    1188:	f1 1f       	adc	r31, r17
    118a:	60 81       	ld	r22, Z
    118c:	c8 01       	movw	r24, r16
    118e:	8c 50       	subi	r24, 0x0C	; 12
    1190:	9b 4e       	sbci	r25, 0xEB	; 235
    1192:	0e 94 43 02 	call	0x486	; 0x486 <write_EEPROM>
							write_EEPROM(i+5368,C.dato[i]);
    1196:	e5 e0       	ldi	r30, 0x05	; 5
    1198:	f0 e0       	ldi	r31, 0x00	; 0
    119a:	ec 0f       	add	r30, r28
    119c:	fd 1f       	adc	r31, r29
    119e:	e0 0f       	add	r30, r16
    11a0:	f1 1f       	adc	r31, r17
    11a2:	60 81       	ld	r22, Z
    11a4:	c8 01       	movw	r24, r16
    11a6:	88 50       	subi	r24, 0x08	; 8
    11a8:	9b 4e       	sbci	r25, 0xEB	; 235
    11aa:	0e 94 43 02 	call	0x486	; 0x486 <write_EEPROM>
							write_EEPROM(i+5372,D.dato[i]);
    11ae:	e1 e0       	ldi	r30, 0x01	; 1
    11b0:	f0 e0       	ldi	r31, 0x00	; 0
    11b2:	ec 0f       	add	r30, r28
    11b4:	fd 1f       	adc	r31, r29
    11b6:	e0 0f       	add	r30, r16
    11b8:	f1 1f       	adc	r31, r17
    11ba:	60 81       	ld	r22, Z
    11bc:	c8 01       	movw	r24, r16
    11be:	84 50       	subi	r24, 0x04	; 4
    11c0:	9b 4e       	sbci	r25, 0xEB	; 235
    11c2:	0e 94 43 02 	call	0x486	; 0x486 <write_EEPROM>
								i++;
							}
						}
						Z2.f = D.f/C.f;
						wdt_reset();
						for(int i=0; i<=3; i++){
    11c6:	0f 5f       	subi	r16, 0xFF	; 255
    11c8:	1f 4f       	sbci	r17, 0xFF	; 255
    11ca:	04 30       	cpi	r16, 0x04	; 4
    11cc:	11 05       	cpc	r17, r1
    11ce:	bc f2       	brlt	.-82     	; 0x117e <executeCommand+0x390>
							write_EEPROM(i+5364,Z2.dato[i]);
							write_EEPROM(i+5368,C.dato[i]);
							write_EEPROM(i+5372,D.dato[i]);
						}
						printf("CN\n");
    11d0:	8c ec       	ldi	r24, 0xCC	; 204
    11d2:	96 eb       	ldi	r25, 0xB6	; 182
    11d4:	0e 94 56 1a 	call	0x34ac	; 0x34ac <puts>
    11d8:	8f c4       	rjmp	.+2334   	; 0x1af8 <executeCommand+0xd0a>
						}
						else{
							if(strstr(command,"CL")!= NULL){
    11da:	63 ed       	ldi	r22, 0xD3	; 211
    11dc:	76 eb       	ldi	r23, 0xB6	; 182
    11de:	c8 01       	movw	r24, r16
    11e0:	0e 94 85 19 	call	0x330a	; 0x330a <strstr>
    11e4:	89 2b       	or	r24, r25
    11e6:	09 f4       	brne	.+2      	; 0x11ea <executeCommand+0x3fc>
    11e8:	45 c0       	rjmp	.+138    	; 0x1274 <executeCommand+0x486>
								Flotante CL;
								char *token = strtok(command, ",");
    11ea:	67 eb       	ldi	r22, 0xB7	; 183
    11ec:	76 eb       	ldi	r23, 0xB6	; 182
    11ee:	c8 01       	movw	r24, r16
    11f0:	0e 94 5d 19 	call	0x32ba	; 0x32ba <strtok>
								int i = 0;
								if(token != NULL){
    11f4:	00 97       	sbiw	r24, 0x00	; 0
    11f6:	01 f5       	brne	.+64     	; 0x1238 <executeCommand+0x44a>
    11f8:	23 c0       	rjmp	.+70     	; 0x1240 <executeCommand+0x452>
									while(token != NULL){
										switch(i){
    11fa:	01 30       	cpi	r16, 0x01	; 1
    11fc:	11 05       	cpc	r17, r1
    11fe:	99 f4       	brne	.+38     	; 0x1226 <executeCommand+0x438>
											case 0:
											break;
											case 1:
											sscanf(token,"%f",&CL.f);
    1200:	9e 01       	movw	r18, r28
    1202:	2f 5f       	subi	r18, 0xFF	; 255
    1204:	3f 4f       	sbci	r19, 0xFF	; 255
    1206:	3f 93       	push	r19
    1208:	2f 93       	push	r18
    120a:	29 ec       	ldi	r18, 0xC9	; 201
    120c:	36 eb       	ldi	r19, 0xB6	; 182
    120e:	3f 93       	push	r19
    1210:	2f 93       	push	r18
    1212:	9f 93       	push	r25
    1214:	8f 93       	push	r24
    1216:	0e 94 86 1a 	call	0x350c	; 0x350c <sscanf>
											break;
    121a:	0f 90       	pop	r0
    121c:	0f 90       	pop	r0
    121e:	0f 90       	pop	r0
    1220:	0f 90       	pop	r0
    1222:	0f 90       	pop	r0
    1224:	0f 90       	pop	r0
										}
										token = strtok(NULL, " ");
    1226:	6c eb       	ldi	r22, 0xBC	; 188
    1228:	76 eb       	ldi	r23, 0xB6	; 182
    122a:	80 e0       	ldi	r24, 0x00	; 0
    122c:	90 e0       	ldi	r25, 0x00	; 0
    122e:	0e 94 5d 19 	call	0x32ba	; 0x32ba <strtok>
										i++;
    1232:	0f 5f       	subi	r16, 0xFF	; 255
    1234:	1f 4f       	sbci	r17, 0xFF	; 255
    1236:	02 c0       	rjmp	.+4      	; 0x123c <executeCommand+0x44e>
    1238:	00 e0       	ldi	r16, 0x00	; 0
    123a:	10 e0       	ldi	r17, 0x00	; 0
							if(strstr(command,"CL")!= NULL){
								Flotante CL;
								char *token = strtok(command, ",");
								int i = 0;
								if(token != NULL){
									while(token != NULL){
    123c:	00 97       	sbiw	r24, 0x00	; 0
    123e:	e9 f6       	brne	.-70     	; 0x11fa <executeCommand+0x40c>
										}
										token = strtok(NULL, " ");
										i++;
									}
								}
								wdt_reset();
    1240:	a8 95       	wdr
								write_EEPROM(5124,CL.dato[0]);
    1242:	69 81       	ldd	r22, Y+1	; 0x01
    1244:	84 e0       	ldi	r24, 0x04	; 4
    1246:	94 e1       	ldi	r25, 0x14	; 20
    1248:	0e 94 43 02 	call	0x486	; 0x486 <write_EEPROM>
								write_EEPROM(5125,CL.dato[1]);
    124c:	6a 81       	ldd	r22, Y+2	; 0x02
    124e:	85 e0       	ldi	r24, 0x05	; 5
    1250:	94 e1       	ldi	r25, 0x14	; 20
    1252:	0e 94 43 02 	call	0x486	; 0x486 <write_EEPROM>
								write_EEPROM(5126,CL.dato[2]);
    1256:	6b 81       	ldd	r22, Y+3	; 0x03
    1258:	86 e0       	ldi	r24, 0x06	; 6
    125a:	94 e1       	ldi	r25, 0x14	; 20
    125c:	0e 94 43 02 	call	0x486	; 0x486 <write_EEPROM>
								write_EEPROM(5127,CL.dato[3]);
    1260:	6c 81       	ldd	r22, Y+4	; 0x04
    1262:	87 e0       	ldi	r24, 0x07	; 7
    1264:	94 e1       	ldi	r25, 0x14	; 20
    1266:	0e 94 43 02 	call	0x486	; 0x486 <write_EEPROM>
								printf("CL\n");
    126a:	83 ed       	ldi	r24, 0xD3	; 211
    126c:	96 eb       	ldi	r25, 0xB6	; 182
    126e:	0e 94 56 1a 	call	0x34ac	; 0x34ac <puts>
    1272:	42 c4       	rjmp	.+2180   	; 0x1af8 <executeCommand+0xd0a>
							}
							else{
								if(strcmp(command,"MS\r") == 0){
    1274:	66 ed       	ldi	r22, 0xD6	; 214
    1276:	76 eb       	ldi	r23, 0xB6	; 182
    1278:	c8 01       	movw	r24, r16
    127a:	0e 94 62 19 	call	0x32c4	; 0x32c4 <strcmp>
    127e:	89 2b       	or	r24, r25
    1280:	09 f0       	breq	.+2      	; 0x1284 <executeCommand+0x496>
    1282:	42 c2       	rjmp	.+1156   	; 0x1708 <executeCommand+0x91a>
									sensor1 = read_EEPROM(5348);
    1284:	84 ee       	ldi	r24, 0xE4	; 228
    1286:	94 e1       	ldi	r25, 0x14	; 20
    1288:	0e 94 4b 02 	call	0x496	; 0x496 <read_EEPROM>
    128c:	18 2f       	mov	r17, r24
    128e:	80 93 10 39 	sts	0x3910, r24	; 0x803910 <sensor1>
									sensor2 = read_EEPROM(5349);
    1292:	85 ee       	ldi	r24, 0xE5	; 229
    1294:	94 e1       	ldi	r25, 0x14	; 20
    1296:	0e 94 4b 02 	call	0x496	; 0x496 <read_EEPROM>
    129a:	80 93 11 39 	sts	0x3911, r24	; 0x803911 <sensor2>
									PORTB.OUT |= PIN5_bm;
    129e:	e0 e2       	ldi	r30, 0x20	; 32
    12a0:	f4 e0       	ldi	r31, 0x04	; 4
    12a2:	94 81       	ldd	r25, Z+4	; 0x04
    12a4:	90 62       	ori	r25, 0x20	; 32
    12a6:	94 83       	std	Z+4, r25	; 0x04
									//Fuente encendida  10 segs
									if(sensor1 == 'P' || sensor2 == 'P' || sensor1 == 'N' || sensor2 == 'N'){
    12a8:	10 35       	cpi	r17, 0x50	; 80
    12aa:	31 f0       	breq	.+12     	; 0x12b8 <executeCommand+0x4ca>
    12ac:	80 35       	cpi	r24, 0x50	; 80
    12ae:	21 f0       	breq	.+8      	; 0x12b8 <executeCommand+0x4ca>
    12b0:	1e 34       	cpi	r17, 0x4E	; 78
    12b2:	11 f0       	breq	.+4      	; 0x12b8 <executeCommand+0x4ca>
    12b4:	8e 34       	cpi	r24, 0x4E	; 78
    12b6:	79 f4       	brne	.+30     	; 0x12d6 <executeCommand+0x4e8>
										wdt_reset();
    12b8:	a8 95       	wdr
										unsigned long int iterations = (5000 * F_CPU) / (10000UL);
										for(unsigned long int i = 0; i < iterations; i++){
    12ba:	80 e0       	ldi	r24, 0x00	; 0
    12bc:	90 e0       	ldi	r25, 0x00	; 0
    12be:	dc 01       	movw	r26, r24
    12c0:	04 c0       	rjmp	.+8      	; 0x12ca <executeCommand+0x4dc>
											wdt_reset();
    12c2:	a8 95       	wdr
									PORTB.OUT |= PIN5_bm;
									//Fuente encendida  10 segs
									if(sensor1 == 'P' || sensor2 == 'P' || sensor1 == 'N' || sensor2 == 'N'){
										wdt_reset();
										unsigned long int iterations = (5000 * F_CPU) / (10000UL);
										for(unsigned long int i = 0; i < iterations; i++){
    12c4:	01 96       	adiw	r24, 0x01	; 1
    12c6:	a1 1d       	adc	r26, r1
    12c8:	b1 1d       	adc	r27, r1
    12ca:	81 15       	cp	r24, r1
    12cc:	f0 e4       	ldi	r31, 0x40	; 64
    12ce:	9f 07       	cpc	r25, r31
    12d0:	a1 05       	cpc	r26, r1
    12d2:	b1 05       	cpc	r27, r1
    12d4:	b0 f3       	brcs	.-20     	; 0x12c2 <executeCommand+0x4d4>
											wdt_reset();
										}
									}
									switch(sensor1){
    12d6:	1e 34       	cpi	r17, 0x4E	; 78
    12d8:	09 f4       	brne	.+2      	; 0x12dc <executeCommand+0x4ee>
    12da:	b2 c0       	rjmp	.+356    	; 0x1440 <executeCommand+0x652>
    12dc:	30 f4       	brcc	.+12     	; 0x12ea <executeCommand+0x4fc>
    12de:	11 34       	cpi	r17, 0x41	; 65
    12e0:	09 f4       	brne	.+2      	; 0x12e4 <executeCommand+0x4f6>
    12e2:	ee c0       	rjmp	.+476    	; 0x14c0 <executeCommand+0x6d2>
    12e4:	19 34       	cpi	r17, 0x49	; 73
    12e6:	39 f0       	breq	.+14     	; 0x12f6 <executeCommand+0x508>
    12e8:	f1 c0       	rjmp	.+482    	; 0x14cc <executeCommand+0x6de>
    12ea:	10 35       	cpi	r17, 0x50	; 80
    12ec:	09 f4       	brne	.+2      	; 0x12f0 <executeCommand+0x502>
    12ee:	68 c0       	rjmp	.+208    	; 0x13c0 <executeCommand+0x5d2>
    12f0:	19 36       	cpi	r17, 0x69	; 105
    12f2:	b1 f1       	breq	.+108    	; 0x1360 <executeCommand+0x572>
    12f4:	eb c0       	rjmp	.+470    	; 0x14cc <executeCommand+0x6de>
										case 'I':
											PORTA.OUT |= PIN7_bm;
    12f6:	00 e0       	ldi	r16, 0x00	; 0
    12f8:	14 e0       	ldi	r17, 0x04	; 4
    12fa:	f8 01       	movw	r30, r16
    12fc:	84 81       	ldd	r24, Z+4	; 0x04
    12fe:	80 68       	ori	r24, 0x80	; 128
    1300:	84 83       	std	Z+4, r24	; 0x04
											PORTA.OUT |= PIN3_bm;
    1302:	84 81       	ldd	r24, Z+4	; 0x04
    1304:	88 60       	ori	r24, 0x08	; 8
    1306:	84 83       	std	Z+4, r24	; 0x04
    1308:	8f ef       	ldi	r24, 0xFF	; 255
    130a:	9f e1       	ldi	r25, 0x1F	; 31
    130c:	01 97       	sbiw	r24, 0x01	; 1
    130e:	f1 f7       	brne	.-4      	; 0x130c <executeCommand+0x51e>
    1310:	00 c0       	rjmp	.+0      	; 0x1312 <executeCommand+0x524>
    1312:	00 00       	nop
											_delay_ms(1000);
											wdt_reset();
    1314:	a8 95       	wdr
											presion1 = get_PressureI2C(get_I2CValue(verbose),2);
    1316:	80 91 74 38 	lds	r24, 0x3874	; 0x803874 <verbose>
    131a:	90 91 75 38 	lds	r25, 0x3875	; 0x803875 <verbose+0x1>
    131e:	0e 94 e7 02 	call	0x5ce	; 0x5ce <get_I2CValue>
    1322:	62 e0       	ldi	r22, 0x02	; 2
    1324:	70 e0       	ldi	r23, 0x00	; 0
    1326:	0e 94 40 04 	call	0x880	; 0x880 <get_PressureI2C>
    132a:	60 93 4e 38 	sts	0x384E, r22	; 0x80384e <presion1>
    132e:	70 93 4f 38 	sts	0x384F, r23	; 0x80384f <presion1+0x1>
    1332:	80 93 50 38 	sts	0x3850, r24	; 0x803850 <presion1+0x2>
    1336:	90 93 51 38 	sts	0x3851, r25	; 0x803851 <presion1+0x3>
											PORTA.OUT &= ~PIN7_bm;
    133a:	f8 01       	movw	r30, r16
    133c:	84 81       	ldd	r24, Z+4	; 0x04
    133e:	8f 77       	andi	r24, 0x7F	; 127
    1340:	84 83       	std	Z+4, r24	; 0x04
											PORTA.OUT &= ~PIN3_bm;
    1342:	84 81       	ldd	r24, Z+4	; 0x04
    1344:	87 7f       	andi	r24, 0xF7	; 247
    1346:	84 83       	std	Z+4, r24	; 0x04
    1348:	8f ef       	ldi	r24, 0xFF	; 255
    134a:	9f e1       	ldi	r25, 0x1F	; 31
    134c:	01 97       	sbiw	r24, 0x01	; 1
    134e:	f1 f7       	brne	.-4      	; 0x134c <executeCommand+0x55e>
    1350:	00 c0       	rjmp	.+0      	; 0x1352 <executeCommand+0x564>
    1352:	00 00       	nop
    1354:	e6 e6       	ldi	r30, 0x66	; 102
    1356:	f6 e0       	ldi	r31, 0x06	; 6
    1358:	31 97       	sbiw	r30, 0x01	; 1
    135a:	f1 f7       	brne	.-4      	; 0x1358 <executeCommand+0x56a>
    135c:	00 00       	nop
    135e:	b6 c0       	rjmp	.+364    	; 0x14cc <executeCommand+0x6de>
											_delay_ms(1000);
											_delay_ms(200);
											break;
										case 'i':
											//printf("EntraS1\r");
											PORTA.OUT |= PIN7_bm;
    1360:	00 e0       	ldi	r16, 0x00	; 0
    1362:	14 e0       	ldi	r17, 0x04	; 4
    1364:	f8 01       	movw	r30, r16
    1366:	84 81       	ldd	r24, Z+4	; 0x04
    1368:	80 68       	ori	r24, 0x80	; 128
    136a:	84 83       	std	Z+4, r24	; 0x04
											PORTA.OUT |= PIN3_bm;
    136c:	84 81       	ldd	r24, Z+4	; 0x04
    136e:	88 60       	ori	r24, 0x08	; 8
    1370:	84 83       	std	Z+4, r24	; 0x04
    1372:	8f ef       	ldi	r24, 0xFF	; 255
    1374:	9f e1       	ldi	r25, 0x1F	; 31
    1376:	01 97       	sbiw	r24, 0x01	; 1
    1378:	f1 f7       	brne	.-4      	; 0x1376 <executeCommand+0x588>
    137a:	00 c0       	rjmp	.+0      	; 0x137c <executeCommand+0x58e>
    137c:	00 00       	nop
											_delay_ms(1000);
											wdt_reset();
    137e:	a8 95       	wdr
											presion1 = get_PressureI2C(get_I2CValue(verbose),1);
    1380:	80 91 74 38 	lds	r24, 0x3874	; 0x803874 <verbose>
    1384:	90 91 75 38 	lds	r25, 0x3875	; 0x803875 <verbose+0x1>
    1388:	0e 94 e7 02 	call	0x5ce	; 0x5ce <get_I2CValue>
    138c:	61 e0       	ldi	r22, 0x01	; 1
    138e:	70 e0       	ldi	r23, 0x00	; 0
    1390:	0e 94 40 04 	call	0x880	; 0x880 <get_PressureI2C>
    1394:	60 93 4e 38 	sts	0x384E, r22	; 0x80384e <presion1>
    1398:	70 93 4f 38 	sts	0x384F, r23	; 0x80384f <presion1+0x1>
    139c:	80 93 50 38 	sts	0x3850, r24	; 0x803850 <presion1+0x2>
    13a0:	90 93 51 38 	sts	0x3851, r25	; 0x803851 <presion1+0x3>
											PORTA.OUT &= ~PIN7_bm;
    13a4:	f8 01       	movw	r30, r16
    13a6:	84 81       	ldd	r24, Z+4	; 0x04
    13a8:	8f 77       	andi	r24, 0x7F	; 127
    13aa:	84 83       	std	Z+4, r24	; 0x04
											PORTA.OUT &= ~PIN3_bm;
    13ac:	84 81       	ldd	r24, Z+4	; 0x04
    13ae:	87 7f       	andi	r24, 0xF7	; 247
    13b0:	84 83       	std	Z+4, r24	; 0x04
    13b2:	8f ef       	ldi	r24, 0xFF	; 255
    13b4:	9f e1       	ldi	r25, 0x1F	; 31
    13b6:	01 97       	sbiw	r24, 0x01	; 1
    13b8:	f1 f7       	brne	.-4      	; 0x13b6 <executeCommand+0x5c8>
    13ba:	00 c0       	rjmp	.+0      	; 0x13bc <executeCommand+0x5ce>
    13bc:	00 00       	nop
    13be:	86 c0       	rjmp	.+268    	; 0x14cc <executeCommand+0x6de>
											_delay_ms(1000);
											break;
										case 'P':
											wdt_reset();
    13c0:	a8 95       	wdr
											vol1 = get_Voltage(9); //2 segundos
    13c2:	89 e0       	ldi	r24, 0x09	; 9
    13c4:	90 e0       	ldi	r25, 0x00	; 0
    13c6:	0e 94 65 02 	call	0x4ca	; 0x4ca <get_Voltage>
    13ca:	26 2f       	mov	r18, r22
    13cc:	37 2f       	mov	r19, r23
    13ce:	46 2f       	mov	r20, r22
    13d0:	57 2f       	mov	r21, r23
    13d2:	68 2f       	mov	r22, r24
    13d4:	79 2f       	mov	r23, r25
    13d6:	40 93 5e 38 	sts	0x385E, r20	; 0x80385e <vol1>
    13da:	50 93 5f 38 	sts	0x385F, r21	; 0x80385f <vol1+0x1>
    13de:	60 93 60 38 	sts	0x3860, r22	; 0x803860 <vol1+0x2>
    13e2:	70 93 61 38 	sts	0x3861, r23	; 0x803861 <vol1+0x3>
											if(verbose == 1){
    13e6:	40 91 74 38 	lds	r20, 0x3874	; 0x803874 <verbose>
    13ea:	50 91 75 38 	lds	r21, 0x3875	; 0x803875 <verbose+0x1>
    13ee:	41 30       	cpi	r20, 0x01	; 1
    13f0:	51 05       	cpc	r21, r1
    13f2:	81 f4       	brne	.+32     	; 0x1414 <executeCommand+0x626>
												printf("Voltaje Sensor1: %f\r",vol1);
    13f4:	9f 93       	push	r25
    13f6:	8f 93       	push	r24
    13f8:	3f 93       	push	r19
    13fa:	2f 93       	push	r18
    13fc:	8a ed       	ldi	r24, 0xDA	; 218
    13fe:	96 eb       	ldi	r25, 0xB6	; 182
    1400:	9f 93       	push	r25
    1402:	8f 93       	push	r24
    1404:	0e 94 40 1a 	call	0x3480	; 0x3480 <printf>
    1408:	0f 90       	pop	r0
    140a:	0f 90       	pop	r0
    140c:	0f 90       	pop	r0
    140e:	0f 90       	pop	r0
    1410:	0f 90       	pop	r0
    1412:	0f 90       	pop	r0
											}
											presion1 = get_PressureADC(vol1,1);
    1414:	60 91 5e 38 	lds	r22, 0x385E	; 0x80385e <vol1>
    1418:	70 91 5f 38 	lds	r23, 0x385F	; 0x80385f <vol1+0x1>
    141c:	80 91 60 38 	lds	r24, 0x3860	; 0x803860 <vol1+0x2>
    1420:	90 91 61 38 	lds	r25, 0x3861	; 0x803861 <vol1+0x3>
    1424:	41 e0       	ldi	r20, 0x01	; 1
    1426:	50 e0       	ldi	r21, 0x00	; 0
    1428:	0e 94 a2 03 	call	0x744	; 0x744 <get_PressureADC>
    142c:	60 93 4e 38 	sts	0x384E, r22	; 0x80384e <presion1>
    1430:	70 93 4f 38 	sts	0x384F, r23	; 0x80384f <presion1+0x1>
    1434:	80 93 50 38 	sts	0x3850, r24	; 0x803850 <presion1+0x2>
    1438:	90 93 51 38 	sts	0x3851, r25	; 0x803851 <presion1+0x3>
											wdt_reset();
    143c:	a8 95       	wdr
											break;
    143e:	46 c0       	rjmp	.+140    	; 0x14cc <executeCommand+0x6de>
										case 'N':
											wdt_reset();
    1440:	a8 95       	wdr
											vol1 = get_Voltage(9); //2 segundos
    1442:	89 e0       	ldi	r24, 0x09	; 9
    1444:	90 e0       	ldi	r25, 0x00	; 0
    1446:	0e 94 65 02 	call	0x4ca	; 0x4ca <get_Voltage>
    144a:	26 2f       	mov	r18, r22
    144c:	37 2f       	mov	r19, r23
    144e:	46 2f       	mov	r20, r22
    1450:	57 2f       	mov	r21, r23
    1452:	68 2f       	mov	r22, r24
    1454:	79 2f       	mov	r23, r25
    1456:	40 93 5e 38 	sts	0x385E, r20	; 0x80385e <vol1>
    145a:	50 93 5f 38 	sts	0x385F, r21	; 0x80385f <vol1+0x1>
    145e:	60 93 60 38 	sts	0x3860, r22	; 0x803860 <vol1+0x2>
    1462:	70 93 61 38 	sts	0x3861, r23	; 0x803861 <vol1+0x3>
											if(verbose == 1){
    1466:	40 91 74 38 	lds	r20, 0x3874	; 0x803874 <verbose>
    146a:	50 91 75 38 	lds	r21, 0x3875	; 0x803875 <verbose+0x1>
    146e:	41 30       	cpi	r20, 0x01	; 1
    1470:	51 05       	cpc	r21, r1
    1472:	81 f4       	brne	.+32     	; 0x1494 <executeCommand+0x6a6>
												printf("Voltaje Sensor1: %f\r",vol1);
    1474:	9f 93       	push	r25
    1476:	8f 93       	push	r24
    1478:	3f 93       	push	r19
    147a:	2f 93       	push	r18
    147c:	8a ed       	ldi	r24, 0xDA	; 218
    147e:	96 eb       	ldi	r25, 0xB6	; 182
    1480:	9f 93       	push	r25
    1482:	8f 93       	push	r24
    1484:	0e 94 40 1a 	call	0x3480	; 0x3480 <printf>
    1488:	0f 90       	pop	r0
    148a:	0f 90       	pop	r0
    148c:	0f 90       	pop	r0
    148e:	0f 90       	pop	r0
    1490:	0f 90       	pop	r0
    1492:	0f 90       	pop	r0
											}
											nivel1 = get_LevelADC(vol1,1);
    1494:	60 91 5e 38 	lds	r22, 0x385E	; 0x80385e <vol1>
    1498:	70 91 5f 38 	lds	r23, 0x385F	; 0x80385f <vol1+0x1>
    149c:	80 91 60 38 	lds	r24, 0x3860	; 0x803860 <vol1+0x2>
    14a0:	90 91 61 38 	lds	r25, 0x3861	; 0x803861 <vol1+0x3>
    14a4:	41 e0       	ldi	r20, 0x01	; 1
    14a6:	50 e0       	ldi	r21, 0x00	; 0
    14a8:	0e 94 88 04 	call	0x910	; 0x910 <get_LevelADC>
    14ac:	60 93 56 38 	sts	0x3856, r22	; 0x803856 <nivel1>
    14b0:	70 93 57 38 	sts	0x3857, r23	; 0x803857 <nivel1+0x1>
    14b4:	80 93 58 38 	sts	0x3858, r24	; 0x803858 <nivel1+0x2>
    14b8:	90 93 59 38 	sts	0x3859, r25	; 0x803859 <nivel1+0x3>
											wdt_reset();
    14bc:	a8 95       	wdr
											break;
    14be:	06 c0       	rjmp	.+12     	; 0x14cc <executeCommand+0x6de>
										case 'A':
											s1 = 1;
    14c0:	81 e0       	ldi	r24, 0x01	; 1
    14c2:	90 e0       	ldi	r25, 0x00	; 0
    14c4:	80 93 44 38 	sts	0x3844, r24	; 0x803844 <s1>
    14c8:	90 93 45 38 	sts	0x3845, r25	; 0x803845 <s1+0x1>
											break;
										default:
											break;
									}
									switch(sensor2){
    14cc:	80 91 11 39 	lds	r24, 0x3911	; 0x803911 <sensor2>
    14d0:	8e 34       	cpi	r24, 0x4E	; 78
    14d2:	09 f4       	brne	.+2      	; 0x14d6 <executeCommand+0x6e8>
    14d4:	bb c0       	rjmp	.+374    	; 0x164c <executeCommand+0x85e>
    14d6:	30 f4       	brcc	.+12     	; 0x14e4 <executeCommand+0x6f6>
    14d8:	81 34       	cpi	r24, 0x41	; 65
    14da:	09 f4       	brne	.+2      	; 0x14de <executeCommand+0x6f0>
    14dc:	f7 c0       	rjmp	.+494    	; 0x16cc <executeCommand+0x8de>
    14de:	89 34       	cpi	r24, 0x49	; 73
    14e0:	39 f0       	breq	.+14     	; 0x14f0 <executeCommand+0x702>
    14e2:	fa c0       	rjmp	.+500    	; 0x16d8 <executeCommand+0x8ea>
    14e4:	80 35       	cpi	r24, 0x50	; 80
    14e6:	09 f4       	brne	.+2      	; 0x14ea <executeCommand+0x6fc>
    14e8:	71 c0       	rjmp	.+226    	; 0x15cc <executeCommand+0x7de>
    14ea:	89 36       	cpi	r24, 0x69	; 105
    14ec:	c1 f1       	breq	.+112    	; 0x155e <executeCommand+0x770>
    14ee:	f4 c0       	rjmp	.+488    	; 0x16d8 <executeCommand+0x8ea>
										case 'I':
											PORTC.OUT |= PIN2_bm;
    14f0:	68 94       	set
    14f2:	ee 24       	eor	r14, r14
    14f4:	e6 f8       	bld	r14, 6
    14f6:	ff 24       	eor	r15, r15
    14f8:	f2 f8       	bld	r15, 2
    14fa:	f7 01       	movw	r30, r14
    14fc:	84 81       	ldd	r24, Z+4	; 0x04
    14fe:	84 60       	ori	r24, 0x04	; 4
    1500:	84 83       	std	Z+4, r24	; 0x04
											PORTA.OUT |= PIN3_bm;
    1502:	00 e0       	ldi	r16, 0x00	; 0
    1504:	14 e0       	ldi	r17, 0x04	; 4
    1506:	f8 01       	movw	r30, r16
    1508:	84 81       	ldd	r24, Z+4	; 0x04
    150a:	88 60       	ori	r24, 0x08	; 8
    150c:	84 83       	std	Z+4, r24	; 0x04
    150e:	8f ef       	ldi	r24, 0xFF	; 255
    1510:	9f e1       	ldi	r25, 0x1F	; 31
    1512:	01 97       	sbiw	r24, 0x01	; 1
    1514:	f1 f7       	brne	.-4      	; 0x1512 <executeCommand+0x724>
    1516:	00 c0       	rjmp	.+0      	; 0x1518 <executeCommand+0x72a>
    1518:	00 00       	nop
											_delay_ms(1000);
											wdt_reset();
    151a:	a8 95       	wdr
											presion2 = get_PressureI2C(get_I2CValue(verbose),2);
    151c:	80 91 74 38 	lds	r24, 0x3874	; 0x803874 <verbose>
    1520:	90 91 75 38 	lds	r25, 0x3875	; 0x803875 <verbose+0x1>
    1524:	0e 94 e7 02 	call	0x5ce	; 0x5ce <get_I2CValue>
    1528:	62 e0       	ldi	r22, 0x02	; 2
    152a:	70 e0       	ldi	r23, 0x00	; 0
    152c:	0e 94 40 04 	call	0x880	; 0x880 <get_PressureI2C>
    1530:	60 93 4a 38 	sts	0x384A, r22	; 0x80384a <presion2>
    1534:	70 93 4b 38 	sts	0x384B, r23	; 0x80384b <presion2+0x1>
    1538:	80 93 4c 38 	sts	0x384C, r24	; 0x80384c <presion2+0x2>
    153c:	90 93 4d 38 	sts	0x384D, r25	; 0x80384d <presion2+0x3>
											PORTC.OUT &= ~PIN2_bm;
    1540:	f7 01       	movw	r30, r14
    1542:	84 81       	ldd	r24, Z+4	; 0x04
    1544:	8b 7f       	andi	r24, 0xFB	; 251
    1546:	84 83       	std	Z+4, r24	; 0x04
											PORTA.OUT &= ~PIN3_bm;
    1548:	f8 01       	movw	r30, r16
    154a:	84 81       	ldd	r24, Z+4	; 0x04
    154c:	87 7f       	andi	r24, 0xF7	; 247
    154e:	84 83       	std	Z+4, r24	; 0x04
    1550:	8f ef       	ldi	r24, 0xFF	; 255
    1552:	9f e1       	ldi	r25, 0x1F	; 31
    1554:	01 97       	sbiw	r24, 0x01	; 1
    1556:	f1 f7       	brne	.-4      	; 0x1554 <executeCommand+0x766>
    1558:	00 c0       	rjmp	.+0      	; 0x155a <executeCommand+0x76c>
    155a:	00 00       	nop
    155c:	bd c0       	rjmp	.+378    	; 0x16d8 <executeCommand+0x8ea>
											_delay_ms(1000);
											break;
										case 'i':
											//printf("EntraS2\r");
											PORTC.OUT |= PIN2_bm;
    155e:	68 94       	set
    1560:	ee 24       	eor	r14, r14
    1562:	e6 f8       	bld	r14, 6
    1564:	ff 24       	eor	r15, r15
    1566:	f2 f8       	bld	r15, 2
    1568:	f7 01       	movw	r30, r14
    156a:	84 81       	ldd	r24, Z+4	; 0x04
    156c:	84 60       	ori	r24, 0x04	; 4
    156e:	84 83       	std	Z+4, r24	; 0x04
											PORTA.OUT |= PIN3_bm;
    1570:	00 e0       	ldi	r16, 0x00	; 0
    1572:	14 e0       	ldi	r17, 0x04	; 4
    1574:	f8 01       	movw	r30, r16
    1576:	84 81       	ldd	r24, Z+4	; 0x04
    1578:	88 60       	ori	r24, 0x08	; 8
    157a:	84 83       	std	Z+4, r24	; 0x04
    157c:	8f ef       	ldi	r24, 0xFF	; 255
    157e:	9f e1       	ldi	r25, 0x1F	; 31
    1580:	01 97       	sbiw	r24, 0x01	; 1
    1582:	f1 f7       	brne	.-4      	; 0x1580 <executeCommand+0x792>
    1584:	00 c0       	rjmp	.+0      	; 0x1586 <executeCommand+0x798>
    1586:	00 00       	nop
											_delay_ms(1000);
											wdt_reset();
    1588:	a8 95       	wdr
											presion2 = get_PressureI2C(get_I2CValue(verbose),1);
    158a:	80 91 74 38 	lds	r24, 0x3874	; 0x803874 <verbose>
    158e:	90 91 75 38 	lds	r25, 0x3875	; 0x803875 <verbose+0x1>
    1592:	0e 94 e7 02 	call	0x5ce	; 0x5ce <get_I2CValue>
    1596:	61 e0       	ldi	r22, 0x01	; 1
    1598:	70 e0       	ldi	r23, 0x00	; 0
    159a:	0e 94 40 04 	call	0x880	; 0x880 <get_PressureI2C>
    159e:	60 93 4a 38 	sts	0x384A, r22	; 0x80384a <presion2>
    15a2:	70 93 4b 38 	sts	0x384B, r23	; 0x80384b <presion2+0x1>
    15a6:	80 93 4c 38 	sts	0x384C, r24	; 0x80384c <presion2+0x2>
    15aa:	90 93 4d 38 	sts	0x384D, r25	; 0x80384d <presion2+0x3>
											PORTC.OUT &= ~PIN2_bm;
    15ae:	f7 01       	movw	r30, r14
    15b0:	84 81       	ldd	r24, Z+4	; 0x04
    15b2:	8b 7f       	andi	r24, 0xFB	; 251
    15b4:	84 83       	std	Z+4, r24	; 0x04
											PORTA.OUT &= ~PIN3_bm;
    15b6:	f8 01       	movw	r30, r16
    15b8:	84 81       	ldd	r24, Z+4	; 0x04
    15ba:	87 7f       	andi	r24, 0xF7	; 247
    15bc:	84 83       	std	Z+4, r24	; 0x04
    15be:	8f ef       	ldi	r24, 0xFF	; 255
    15c0:	9f e1       	ldi	r25, 0x1F	; 31
    15c2:	01 97       	sbiw	r24, 0x01	; 1
    15c4:	f1 f7       	brne	.-4      	; 0x15c2 <executeCommand+0x7d4>
    15c6:	00 c0       	rjmp	.+0      	; 0x15c8 <executeCommand+0x7da>
    15c8:	00 00       	nop
    15ca:	86 c0       	rjmp	.+268    	; 0x16d8 <executeCommand+0x8ea>
											_delay_ms(1000);
											break;
										case 'P':
											wdt_reset();
    15cc:	a8 95       	wdr
											vol2 = get_Voltage(5); //2 segundos
    15ce:	85 e0       	ldi	r24, 0x05	; 5
    15d0:	90 e0       	ldi	r25, 0x00	; 0
    15d2:	0e 94 65 02 	call	0x4ca	; 0x4ca <get_Voltage>
    15d6:	26 2f       	mov	r18, r22
    15d8:	37 2f       	mov	r19, r23
    15da:	46 2f       	mov	r20, r22
    15dc:	57 2f       	mov	r21, r23
    15de:	68 2f       	mov	r22, r24
    15e0:	79 2f       	mov	r23, r25
    15e2:	40 93 5a 38 	sts	0x385A, r20	; 0x80385a <vol2>
    15e6:	50 93 5b 38 	sts	0x385B, r21	; 0x80385b <vol2+0x1>
    15ea:	60 93 5c 38 	sts	0x385C, r22	; 0x80385c <vol2+0x2>
    15ee:	70 93 5d 38 	sts	0x385D, r23	; 0x80385d <vol2+0x3>
											//PORTB.OUT &= ~PIN5_bm;
											if(verbose == 1){
    15f2:	40 91 74 38 	lds	r20, 0x3874	; 0x803874 <verbose>
    15f6:	50 91 75 38 	lds	r21, 0x3875	; 0x803875 <verbose+0x1>
    15fa:	41 30       	cpi	r20, 0x01	; 1
    15fc:	51 05       	cpc	r21, r1
    15fe:	81 f4       	brne	.+32     	; 0x1620 <executeCommand+0x832>
												printf("Voltaje Sensor2: %f\r",vol2);
    1600:	9f 93       	push	r25
    1602:	8f 93       	push	r24
    1604:	3f 93       	push	r19
    1606:	2f 93       	push	r18
    1608:	8f ee       	ldi	r24, 0xEF	; 239
    160a:	96 eb       	ldi	r25, 0xB6	; 182
    160c:	9f 93       	push	r25
    160e:	8f 93       	push	r24
    1610:	0e 94 40 1a 	call	0x3480	; 0x3480 <printf>
    1614:	0f 90       	pop	r0
    1616:	0f 90       	pop	r0
    1618:	0f 90       	pop	r0
    161a:	0f 90       	pop	r0
    161c:	0f 90       	pop	r0
    161e:	0f 90       	pop	r0
											}
											//printf("Voltaje2: %f\r",vol2);
											presion2 = get_PressureADC(vol2,2);
    1620:	60 91 5a 38 	lds	r22, 0x385A	; 0x80385a <vol2>
    1624:	70 91 5b 38 	lds	r23, 0x385B	; 0x80385b <vol2+0x1>
    1628:	80 91 5c 38 	lds	r24, 0x385C	; 0x80385c <vol2+0x2>
    162c:	90 91 5d 38 	lds	r25, 0x385D	; 0x80385d <vol2+0x3>
    1630:	42 e0       	ldi	r20, 0x02	; 2
    1632:	50 e0       	ldi	r21, 0x00	; 0
    1634:	0e 94 a2 03 	call	0x744	; 0x744 <get_PressureADC>
    1638:	60 93 4a 38 	sts	0x384A, r22	; 0x80384a <presion2>
    163c:	70 93 4b 38 	sts	0x384B, r23	; 0x80384b <presion2+0x1>
    1640:	80 93 4c 38 	sts	0x384C, r24	; 0x80384c <presion2+0x2>
    1644:	90 93 4d 38 	sts	0x384D, r25	; 0x80384d <presion2+0x3>
											wdt_reset();
    1648:	a8 95       	wdr
											break;
    164a:	46 c0       	rjmp	.+140    	; 0x16d8 <executeCommand+0x8ea>
										case 'N':
											wdt_reset();
    164c:	a8 95       	wdr
											vol2 = get_Voltage(5); //2 segundos
    164e:	85 e0       	ldi	r24, 0x05	; 5
    1650:	90 e0       	ldi	r25, 0x00	; 0
    1652:	0e 94 65 02 	call	0x4ca	; 0x4ca <get_Voltage>
    1656:	26 2f       	mov	r18, r22
    1658:	37 2f       	mov	r19, r23
    165a:	46 2f       	mov	r20, r22
    165c:	57 2f       	mov	r21, r23
    165e:	68 2f       	mov	r22, r24
    1660:	79 2f       	mov	r23, r25
    1662:	40 93 5a 38 	sts	0x385A, r20	; 0x80385a <vol2>
    1666:	50 93 5b 38 	sts	0x385B, r21	; 0x80385b <vol2+0x1>
    166a:	60 93 5c 38 	sts	0x385C, r22	; 0x80385c <vol2+0x2>
    166e:	70 93 5d 38 	sts	0x385D, r23	; 0x80385d <vol2+0x3>
											if(verbose == 1){
    1672:	40 91 74 38 	lds	r20, 0x3874	; 0x803874 <verbose>
    1676:	50 91 75 38 	lds	r21, 0x3875	; 0x803875 <verbose+0x1>
    167a:	41 30       	cpi	r20, 0x01	; 1
    167c:	51 05       	cpc	r21, r1
    167e:	81 f4       	brne	.+32     	; 0x16a0 <executeCommand+0x8b2>
												printf("Voltaje Sensor2: %f\r",vol2);
    1680:	9f 93       	push	r25
    1682:	8f 93       	push	r24
    1684:	3f 93       	push	r19
    1686:	2f 93       	push	r18
    1688:	8f ee       	ldi	r24, 0xEF	; 239
    168a:	96 eb       	ldi	r25, 0xB6	; 182
    168c:	9f 93       	push	r25
    168e:	8f 93       	push	r24
    1690:	0e 94 40 1a 	call	0x3480	; 0x3480 <printf>
    1694:	0f 90       	pop	r0
    1696:	0f 90       	pop	r0
    1698:	0f 90       	pop	r0
    169a:	0f 90       	pop	r0
    169c:	0f 90       	pop	r0
    169e:	0f 90       	pop	r0
											}
											nivel2 = get_LevelADC(vol2,2);
    16a0:	60 91 5a 38 	lds	r22, 0x385A	; 0x80385a <vol2>
    16a4:	70 91 5b 38 	lds	r23, 0x385B	; 0x80385b <vol2+0x1>
    16a8:	80 91 5c 38 	lds	r24, 0x385C	; 0x80385c <vol2+0x2>
    16ac:	90 91 5d 38 	lds	r25, 0x385D	; 0x80385d <vol2+0x3>
    16b0:	42 e0       	ldi	r20, 0x02	; 2
    16b2:	50 e0       	ldi	r21, 0x00	; 0
    16b4:	0e 94 88 04 	call	0x910	; 0x910 <get_LevelADC>
    16b8:	60 93 52 38 	sts	0x3852, r22	; 0x803852 <nivel2>
    16bc:	70 93 53 38 	sts	0x3853, r23	; 0x803853 <nivel2+0x1>
    16c0:	80 93 54 38 	sts	0x3854, r24	; 0x803854 <nivel2+0x2>
    16c4:	90 93 55 38 	sts	0x3855, r25	; 0x803855 <nivel2+0x3>
											wdt_reset();
    16c8:	a8 95       	wdr
										break;
    16ca:	06 c0       	rjmp	.+12     	; 0x16d8 <executeCommand+0x8ea>
										case 'A':
											s2 = 1;
    16cc:	81 e0       	ldi	r24, 0x01	; 1
    16ce:	90 e0       	ldi	r25, 0x00	; 0
    16d0:	80 93 42 38 	sts	0x3842, r24	; 0x803842 <s2>
    16d4:	90 93 43 38 	sts	0x3843, r25	; 0x803843 <s2+0x1>
											break;
										default:
											break;
									}
									PORTB.OUT &= ~PIN5_bm;
    16d8:	e0 e2       	ldi	r30, 0x20	; 32
    16da:	f4 e0       	ldi	r31, 0x04	; 4
    16dc:	84 81       	ldd	r24, Z+4	; 0x04
    16de:	8f 7d       	andi	r24, 0xDF	; 223
    16e0:	84 83       	std	Z+4, r24	; 0x04
									bateria = get_Voltage(6)*5; //2 segundos
    16e2:	86 e0       	ldi	r24, 0x06	; 6
    16e4:	90 e0       	ldi	r25, 0x00	; 0
    16e6:	0e 94 65 02 	call	0x4ca	; 0x4ca <get_Voltage>
    16ea:	20 e0       	ldi	r18, 0x00	; 0
    16ec:	30 e0       	ldi	r19, 0x00	; 0
    16ee:	40 ea       	ldi	r20, 0xA0	; 160
    16f0:	50 e4       	ldi	r21, 0x40	; 64
    16f2:	0e 94 35 10 	call	0x206a	; 0x206a <__mulsf3>
    16f6:	60 93 46 38 	sts	0x3846, r22	; 0x803846 <bateria>
    16fa:	70 93 47 38 	sts	0x3847, r23	; 0x803847 <bateria+0x1>
    16fe:	80 93 48 38 	sts	0x3848, r24	; 0x803848 <bateria+0x2>
    1702:	90 93 49 38 	sts	0x3849, r25	; 0x803849 <bateria+0x3>
    1706:	f8 c1       	rjmp	.+1008   	; 0x1af8 <executeCommand+0xd0a>
									//count = 0;
								}
								else{
									if(strcmp(command,"RT\r") == 0){
    1708:	64 e0       	ldi	r22, 0x04	; 4
    170a:	77 eb       	ldi	r23, 0xB7	; 183
    170c:	c8 01       	movw	r24, r16
    170e:	0e 94 62 19 	call	0x32c4	; 0x32c4 <strcmp>
    1712:	89 2b       	or	r24, r25
    1714:	09 f0       	breq	.+2      	; 0x1718 <executeCommand+0x92a>
    1716:	ec c1       	rjmp	.+984    	; 0x1af0 <executeCommand+0xd02>
										//printf("Bandera1: %d, Bandera2: %d",s1,s2);
										if((sensor1 == 'P' || sensor1 == 'I' || sensor1 == 'i') && (sensor2 == 'P' || sensor2 == 'I' || sensor2 == 'i')){
    1718:	80 91 10 39 	lds	r24, 0x3910	; 0x803910 <sensor1>
    171c:	80 35       	cpi	r24, 0x50	; 80
    171e:	29 f0       	breq	.+10     	; 0x172a <executeCommand+0x93c>
    1720:	89 34       	cpi	r24, 0x49	; 73
    1722:	19 f0       	breq	.+6      	; 0x172a <executeCommand+0x93c>
    1724:	89 36       	cpi	r24, 0x69	; 105
    1726:	09 f0       	breq	.+2      	; 0x172a <executeCommand+0x93c>
    1728:	63 c0       	rjmp	.+198    	; 0x17f0 <executeCommand+0xa02>
    172a:	90 91 11 39 	lds	r25, 0x3911	; 0x803911 <sensor2>
    172e:	90 35       	cpi	r25, 0x50	; 80
    1730:	29 f0       	breq	.+10     	; 0x173c <executeCommand+0x94e>
    1732:	99 34       	cpi	r25, 0x49	; 73
    1734:	19 f0       	breq	.+6      	; 0x173c <executeCommand+0x94e>
    1736:	99 36       	cpi	r25, 0x69	; 105
    1738:	09 f0       	breq	.+2      	; 0x173c <executeCommand+0x94e>
    173a:	5a c0       	rjmp	.+180    	; 0x17f0 <executeCommand+0xa02>
											printf("RH%.2fRQ%.2fRVO%.2f\n",presion1,presion2,bateria);
    173c:	80 91 49 38 	lds	r24, 0x3849	; 0x803849 <bateria+0x3>
    1740:	8f 93       	push	r24
    1742:	80 91 48 38 	lds	r24, 0x3848	; 0x803848 <bateria+0x2>
    1746:	8f 93       	push	r24
    1748:	80 91 47 38 	lds	r24, 0x3847	; 0x803847 <bateria+0x1>
    174c:	8f 93       	push	r24
    174e:	80 91 46 38 	lds	r24, 0x3846	; 0x803846 <bateria>
    1752:	8f 93       	push	r24
    1754:	80 91 4d 38 	lds	r24, 0x384D	; 0x80384d <presion2+0x3>
    1758:	8f 93       	push	r24
    175a:	80 91 4c 38 	lds	r24, 0x384C	; 0x80384c <presion2+0x2>
    175e:	8f 93       	push	r24
    1760:	80 91 4b 38 	lds	r24, 0x384B	; 0x80384b <presion2+0x1>
    1764:	8f 93       	push	r24
    1766:	80 91 4a 38 	lds	r24, 0x384A	; 0x80384a <presion2>
    176a:	8f 93       	push	r24
    176c:	80 91 51 38 	lds	r24, 0x3851	; 0x803851 <presion1+0x3>
    1770:	8f 93       	push	r24
    1772:	80 91 50 38 	lds	r24, 0x3850	; 0x803850 <presion1+0x2>
    1776:	8f 93       	push	r24
    1778:	80 91 4f 38 	lds	r24, 0x384F	; 0x80384f <presion1+0x1>
    177c:	8f 93       	push	r24
    177e:	80 91 4e 38 	lds	r24, 0x384E	; 0x80384e <presion1>
    1782:	8f 93       	push	r24
    1784:	88 e0       	ldi	r24, 0x08	; 8
    1786:	97 eb       	ldi	r25, 0xB7	; 183
    1788:	9f 93       	push	r25
    178a:	8f 93       	push	r24
    178c:	0e 94 40 1a 	call	0x3480	; 0x3480 <printf>
											TCA0.SINGLE.CTRLA &= ~TCA_SINGLE_ENABLE_bm;
    1790:	e0 e0       	ldi	r30, 0x00	; 0
    1792:	fa e0       	ldi	r31, 0x0A	; 10
    1794:	80 81       	ld	r24, Z
    1796:	8e 7f       	andi	r24, 0xFE	; 254
    1798:	80 83       	st	Z, r24
											vol1 = 0;
    179a:	10 92 5e 38 	sts	0x385E, r1	; 0x80385e <vol1>
    179e:	10 92 5f 38 	sts	0x385F, r1	; 0x80385f <vol1+0x1>
    17a2:	10 92 60 38 	sts	0x3860, r1	; 0x803860 <vol1+0x2>
    17a6:	10 92 61 38 	sts	0x3861, r1	; 0x803861 <vol1+0x3>
											vol2 = 0;
    17aa:	10 92 5a 38 	sts	0x385A, r1	; 0x80385a <vol2>
    17ae:	10 92 5b 38 	sts	0x385B, r1	; 0x80385b <vol2+0x1>
    17b2:	10 92 5c 38 	sts	0x385C, r1	; 0x80385c <vol2+0x2>
    17b6:	10 92 5d 38 	sts	0x385D, r1	; 0x80385d <vol2+0x3>
											presion1 = 0;
    17ba:	10 92 4e 38 	sts	0x384E, r1	; 0x80384e <presion1>
    17be:	10 92 4f 38 	sts	0x384F, r1	; 0x80384f <presion1+0x1>
    17c2:	10 92 50 38 	sts	0x3850, r1	; 0x803850 <presion1+0x2>
    17c6:	10 92 51 38 	sts	0x3851, r1	; 0x803851 <presion1+0x3>
											presion2 = 0;
    17ca:	10 92 4a 38 	sts	0x384A, r1	; 0x80384a <presion2>
    17ce:	10 92 4b 38 	sts	0x384B, r1	; 0x80384b <presion2+0x1>
    17d2:	10 92 4c 38 	sts	0x384C, r1	; 0x80384c <presion2+0x2>
    17d6:	10 92 4d 38 	sts	0x384D, r1	; 0x80384d <presion2+0x3>
											bateria = 0;
    17da:	10 92 46 38 	sts	0x3846, r1	; 0x803846 <bateria>
    17de:	10 92 47 38 	sts	0x3847, r1	; 0x803847 <bateria+0x1>
    17e2:	10 92 48 38 	sts	0x3848, r1	; 0x803848 <bateria+0x2>
    17e6:	10 92 49 38 	sts	0x3849, r1	; 0x803849 <bateria+0x3>
    17ea:	cd bf       	out	0x3d, r28	; 61
    17ec:	de bf       	out	0x3e, r29	; 62
    17ee:	84 c1       	rjmp	.+776    	; 0x1af8 <executeCommand+0xd0a>
										}
										else{
											if((sensor1 == 'P' || sensor1 == 'I' || sensor1 == 'i') && sensor2 == 'N'){
    17f0:	80 35       	cpi	r24, 0x50	; 80
    17f2:	29 f0       	breq	.+10     	; 0x17fe <executeCommand+0xa10>
    17f4:	89 34       	cpi	r24, 0x49	; 73
    17f6:	19 f0       	breq	.+6      	; 0x17fe <executeCommand+0xa10>
    17f8:	89 36       	cpi	r24, 0x69	; 105
    17fa:	09 f0       	breq	.+2      	; 0x17fe <executeCommand+0xa10>
    17fc:	5a c0       	rjmp	.+180    	; 0x18b2 <executeCommand+0xac4>
    17fe:	90 91 11 39 	lds	r25, 0x3911	; 0x803911 <sensor2>
    1802:	9e 34       	cpi	r25, 0x4E	; 78
    1804:	09 f0       	breq	.+2      	; 0x1808 <executeCommand+0xa1a>
    1806:	55 c0       	rjmp	.+170    	; 0x18b2 <executeCommand+0xac4>
												printf("RP%.2fRN%.2fRVO%.2f\n",presion1,nivel2,bateria);
    1808:	80 91 49 38 	lds	r24, 0x3849	; 0x803849 <bateria+0x3>
    180c:	8f 93       	push	r24
    180e:	80 91 48 38 	lds	r24, 0x3848	; 0x803848 <bateria+0x2>
    1812:	8f 93       	push	r24
    1814:	80 91 47 38 	lds	r24, 0x3847	; 0x803847 <bateria+0x1>
    1818:	8f 93       	push	r24
    181a:	80 91 46 38 	lds	r24, 0x3846	; 0x803846 <bateria>
    181e:	8f 93       	push	r24
    1820:	80 91 55 38 	lds	r24, 0x3855	; 0x803855 <nivel2+0x3>
    1824:	8f 93       	push	r24
    1826:	80 91 54 38 	lds	r24, 0x3854	; 0x803854 <nivel2+0x2>
    182a:	8f 93       	push	r24
    182c:	80 91 53 38 	lds	r24, 0x3853	; 0x803853 <nivel2+0x1>
    1830:	8f 93       	push	r24
    1832:	80 91 52 38 	lds	r24, 0x3852	; 0x803852 <nivel2>
    1836:	8f 93       	push	r24
    1838:	80 91 51 38 	lds	r24, 0x3851	; 0x803851 <presion1+0x3>
    183c:	8f 93       	push	r24
    183e:	80 91 50 38 	lds	r24, 0x3850	; 0x803850 <presion1+0x2>
    1842:	8f 93       	push	r24
    1844:	80 91 4f 38 	lds	r24, 0x384F	; 0x80384f <presion1+0x1>
    1848:	8f 93       	push	r24
    184a:	80 91 4e 38 	lds	r24, 0x384E	; 0x80384e <presion1>
    184e:	8f 93       	push	r24
    1850:	8d e1       	ldi	r24, 0x1D	; 29
    1852:	97 eb       	ldi	r25, 0xB7	; 183
    1854:	9f 93       	push	r25
    1856:	8f 93       	push	r24
    1858:	0e 94 40 1a 	call	0x3480	; 0x3480 <printf>
												vol1 = 0;
    185c:	10 92 5e 38 	sts	0x385E, r1	; 0x80385e <vol1>
    1860:	10 92 5f 38 	sts	0x385F, r1	; 0x80385f <vol1+0x1>
    1864:	10 92 60 38 	sts	0x3860, r1	; 0x803860 <vol1+0x2>
    1868:	10 92 61 38 	sts	0x3861, r1	; 0x803861 <vol1+0x3>
												vol2 = 0;
    186c:	10 92 5a 38 	sts	0x385A, r1	; 0x80385a <vol2>
    1870:	10 92 5b 38 	sts	0x385B, r1	; 0x80385b <vol2+0x1>
    1874:	10 92 5c 38 	sts	0x385C, r1	; 0x80385c <vol2+0x2>
    1878:	10 92 5d 38 	sts	0x385D, r1	; 0x80385d <vol2+0x3>
												presion1 = 0;
    187c:	10 92 4e 38 	sts	0x384E, r1	; 0x80384e <presion1>
    1880:	10 92 4f 38 	sts	0x384F, r1	; 0x80384f <presion1+0x1>
    1884:	10 92 50 38 	sts	0x3850, r1	; 0x803850 <presion1+0x2>
    1888:	10 92 51 38 	sts	0x3851, r1	; 0x803851 <presion1+0x3>
												nivel2 = 0;
    188c:	10 92 52 38 	sts	0x3852, r1	; 0x803852 <nivel2>
    1890:	10 92 53 38 	sts	0x3853, r1	; 0x803853 <nivel2+0x1>
    1894:	10 92 54 38 	sts	0x3854, r1	; 0x803854 <nivel2+0x2>
    1898:	10 92 55 38 	sts	0x3855, r1	; 0x803855 <nivel2+0x3>
												bateria = 0;
    189c:	10 92 46 38 	sts	0x3846, r1	; 0x803846 <bateria>
    18a0:	10 92 47 38 	sts	0x3847, r1	; 0x803847 <bateria+0x1>
    18a4:	10 92 48 38 	sts	0x3848, r1	; 0x803848 <bateria+0x2>
    18a8:	10 92 49 38 	sts	0x3849, r1	; 0x803849 <bateria+0x3>
    18ac:	cd bf       	out	0x3d, r28	; 61
    18ae:	de bf       	out	0x3e, r29	; 62
    18b0:	23 c1       	rjmp	.+582    	; 0x1af8 <executeCommand+0xd0a>
											}
											else{
												if((sensor1 == 'P' || sensor1 == 'I' || sensor1 == 'i') && sensor2 == 'A'){
    18b2:	80 35       	cpi	r24, 0x50	; 80
    18b4:	21 f0       	breq	.+8      	; 0x18be <executeCommand+0xad0>
    18b6:	89 34       	cpi	r24, 0x49	; 73
    18b8:	11 f0       	breq	.+4      	; 0x18be <executeCommand+0xad0>
    18ba:	89 36       	cpi	r24, 0x69	; 105
    18bc:	e9 f5       	brne	.+122    	; 0x1938 <executeCommand+0xb4a>
    18be:	90 91 11 39 	lds	r25, 0x3911	; 0x803911 <sensor2>
    18c2:	91 34       	cpi	r25, 0x41	; 65
    18c4:	c9 f5       	brne	.+114    	; 0x1938 <executeCommand+0xb4a>
													printf("RP%.2fRVO%.2f\n",presion1,bateria);
    18c6:	80 91 49 38 	lds	r24, 0x3849	; 0x803849 <bateria+0x3>
    18ca:	8f 93       	push	r24
    18cc:	80 91 48 38 	lds	r24, 0x3848	; 0x803848 <bateria+0x2>
    18d0:	8f 93       	push	r24
    18d2:	80 91 47 38 	lds	r24, 0x3847	; 0x803847 <bateria+0x1>
    18d6:	8f 93       	push	r24
    18d8:	80 91 46 38 	lds	r24, 0x3846	; 0x803846 <bateria>
    18dc:	8f 93       	push	r24
    18de:	80 91 51 38 	lds	r24, 0x3851	; 0x803851 <presion1+0x3>
    18e2:	8f 93       	push	r24
    18e4:	80 91 50 38 	lds	r24, 0x3850	; 0x803850 <presion1+0x2>
    18e8:	8f 93       	push	r24
    18ea:	80 91 4f 38 	lds	r24, 0x384F	; 0x80384f <presion1+0x1>
    18ee:	8f 93       	push	r24
    18f0:	80 91 4e 38 	lds	r24, 0x384E	; 0x80384e <presion1>
    18f4:	8f 93       	push	r24
    18f6:	82 e3       	ldi	r24, 0x32	; 50
    18f8:	97 eb       	ldi	r25, 0xB7	; 183
    18fa:	9f 93       	push	r25
    18fc:	8f 93       	push	r24
    18fe:	0e 94 40 1a 	call	0x3480	; 0x3480 <printf>
													vol1 = 0;
    1902:	10 92 5e 38 	sts	0x385E, r1	; 0x80385e <vol1>
    1906:	10 92 5f 38 	sts	0x385F, r1	; 0x80385f <vol1+0x1>
    190a:	10 92 60 38 	sts	0x3860, r1	; 0x803860 <vol1+0x2>
    190e:	10 92 61 38 	sts	0x3861, r1	; 0x803861 <vol1+0x3>
													presion1 = 0;
    1912:	10 92 4e 38 	sts	0x384E, r1	; 0x80384e <presion1>
    1916:	10 92 4f 38 	sts	0x384F, r1	; 0x80384f <presion1+0x1>
    191a:	10 92 50 38 	sts	0x3850, r1	; 0x803850 <presion1+0x2>
    191e:	10 92 51 38 	sts	0x3851, r1	; 0x803851 <presion1+0x3>
													bateria = 0;
    1922:	10 92 46 38 	sts	0x3846, r1	; 0x803846 <bateria>
    1926:	10 92 47 38 	sts	0x3847, r1	; 0x803847 <bateria+0x1>
    192a:	10 92 48 38 	sts	0x3848, r1	; 0x803848 <bateria+0x2>
    192e:	10 92 49 38 	sts	0x3849, r1	; 0x803849 <bateria+0x3>
    1932:	cd bf       	out	0x3d, r28	; 61
    1934:	de bf       	out	0x3e, r29	; 62
    1936:	e0 c0       	rjmp	.+448    	; 0x1af8 <executeCommand+0xd0a>
												}
												else{
													if(sensor1 == 'N' && sensor2 == 'N'){
    1938:	8e 34       	cpi	r24, 0x4E	; 78
    193a:	09 f0       	breq	.+2      	; 0x193e <executeCommand+0xb50>
    193c:	5a c0       	rjmp	.+180    	; 0x19f2 <executeCommand+0xc04>
    193e:	90 91 11 39 	lds	r25, 0x3911	; 0x803911 <sensor2>
    1942:	9e 34       	cpi	r25, 0x4E	; 78
    1944:	09 f0       	breq	.+2      	; 0x1948 <executeCommand+0xb5a>
    1946:	55 c0       	rjmp	.+170    	; 0x19f2 <executeCommand+0xc04>
														printf("RP%.2fRQ%.2fRVO%.2f\n", nivel1,nivel2,bateria);
    1948:	80 91 49 38 	lds	r24, 0x3849	; 0x803849 <bateria+0x3>
    194c:	8f 93       	push	r24
    194e:	80 91 48 38 	lds	r24, 0x3848	; 0x803848 <bateria+0x2>
    1952:	8f 93       	push	r24
    1954:	80 91 47 38 	lds	r24, 0x3847	; 0x803847 <bateria+0x1>
    1958:	8f 93       	push	r24
    195a:	80 91 46 38 	lds	r24, 0x3846	; 0x803846 <bateria>
    195e:	8f 93       	push	r24
    1960:	80 91 55 38 	lds	r24, 0x3855	; 0x803855 <nivel2+0x3>
    1964:	8f 93       	push	r24
    1966:	80 91 54 38 	lds	r24, 0x3854	; 0x803854 <nivel2+0x2>
    196a:	8f 93       	push	r24
    196c:	80 91 53 38 	lds	r24, 0x3853	; 0x803853 <nivel2+0x1>
    1970:	8f 93       	push	r24
    1972:	80 91 52 38 	lds	r24, 0x3852	; 0x803852 <nivel2>
    1976:	8f 93       	push	r24
    1978:	80 91 59 38 	lds	r24, 0x3859	; 0x803859 <nivel1+0x3>
    197c:	8f 93       	push	r24
    197e:	80 91 58 38 	lds	r24, 0x3858	; 0x803858 <nivel1+0x2>
    1982:	8f 93       	push	r24
    1984:	80 91 57 38 	lds	r24, 0x3857	; 0x803857 <nivel1+0x1>
    1988:	8f 93       	push	r24
    198a:	80 91 56 38 	lds	r24, 0x3856	; 0x803856 <nivel1>
    198e:	8f 93       	push	r24
    1990:	81 e4       	ldi	r24, 0x41	; 65
    1992:	97 eb       	ldi	r25, 0xB7	; 183
    1994:	9f 93       	push	r25
    1996:	8f 93       	push	r24
    1998:	0e 94 40 1a 	call	0x3480	; 0x3480 <printf>
														vol1 = 0;
    199c:	10 92 5e 38 	sts	0x385E, r1	; 0x80385e <vol1>
    19a0:	10 92 5f 38 	sts	0x385F, r1	; 0x80385f <vol1+0x1>
    19a4:	10 92 60 38 	sts	0x3860, r1	; 0x803860 <vol1+0x2>
    19a8:	10 92 61 38 	sts	0x3861, r1	; 0x803861 <vol1+0x3>
														vol2 = 0;
    19ac:	10 92 5a 38 	sts	0x385A, r1	; 0x80385a <vol2>
    19b0:	10 92 5b 38 	sts	0x385B, r1	; 0x80385b <vol2+0x1>
    19b4:	10 92 5c 38 	sts	0x385C, r1	; 0x80385c <vol2+0x2>
    19b8:	10 92 5d 38 	sts	0x385D, r1	; 0x80385d <vol2+0x3>
														nivel1 = 0;
    19bc:	10 92 56 38 	sts	0x3856, r1	; 0x803856 <nivel1>
    19c0:	10 92 57 38 	sts	0x3857, r1	; 0x803857 <nivel1+0x1>
    19c4:	10 92 58 38 	sts	0x3858, r1	; 0x803858 <nivel1+0x2>
    19c8:	10 92 59 38 	sts	0x3859, r1	; 0x803859 <nivel1+0x3>
														nivel2 = 0;
    19cc:	10 92 52 38 	sts	0x3852, r1	; 0x803852 <nivel2>
    19d0:	10 92 53 38 	sts	0x3853, r1	; 0x803853 <nivel2+0x1>
    19d4:	10 92 54 38 	sts	0x3854, r1	; 0x803854 <nivel2+0x2>
    19d8:	10 92 55 38 	sts	0x3855, r1	; 0x803855 <nivel2+0x3>
														bateria = 0;
    19dc:	10 92 46 38 	sts	0x3846, r1	; 0x803846 <bateria>
    19e0:	10 92 47 38 	sts	0x3847, r1	; 0x803847 <bateria+0x1>
    19e4:	10 92 48 38 	sts	0x3848, r1	; 0x803848 <bateria+0x2>
    19e8:	10 92 49 38 	sts	0x3849, r1	; 0x803849 <bateria+0x3>
    19ec:	cd bf       	out	0x3d, r28	; 61
    19ee:	de bf       	out	0x3e, r29	; 62
    19f0:	83 c0       	rjmp	.+262    	; 0x1af8 <executeCommand+0xd0a>
													}
													else{
														if(sensor1 == 'N' && sensor2 == 'A'){
    19f2:	8e 34       	cpi	r24, 0x4E	; 78
    19f4:	e9 f5       	brne	.+122    	; 0x1a70 <executeCommand+0xc82>
    19f6:	90 91 11 39 	lds	r25, 0x3911	; 0x803911 <sensor2>
    19fa:	91 34       	cpi	r25, 0x41	; 65
    19fc:	c9 f5       	brne	.+114    	; 0x1a70 <executeCommand+0xc82>
															printf("RN%.2fRVO%.2f\n", nivel1,bateria);
    19fe:	80 91 49 38 	lds	r24, 0x3849	; 0x803849 <bateria+0x3>
    1a02:	8f 93       	push	r24
    1a04:	80 91 48 38 	lds	r24, 0x3848	; 0x803848 <bateria+0x2>
    1a08:	8f 93       	push	r24
    1a0a:	80 91 47 38 	lds	r24, 0x3847	; 0x803847 <bateria+0x1>
    1a0e:	8f 93       	push	r24
    1a10:	80 91 46 38 	lds	r24, 0x3846	; 0x803846 <bateria>
    1a14:	8f 93       	push	r24
    1a16:	80 91 59 38 	lds	r24, 0x3859	; 0x803859 <nivel1+0x3>
    1a1a:	8f 93       	push	r24
    1a1c:	80 91 58 38 	lds	r24, 0x3858	; 0x803858 <nivel1+0x2>
    1a20:	8f 93       	push	r24
    1a22:	80 91 57 38 	lds	r24, 0x3857	; 0x803857 <nivel1+0x1>
    1a26:	8f 93       	push	r24
    1a28:	80 91 56 38 	lds	r24, 0x3856	; 0x803856 <nivel1>
    1a2c:	8f 93       	push	r24
    1a2e:	83 e2       	ldi	r24, 0x23	; 35
    1a30:	97 eb       	ldi	r25, 0xB7	; 183
    1a32:	9f 93       	push	r25
    1a34:	8f 93       	push	r24
    1a36:	0e 94 40 1a 	call	0x3480	; 0x3480 <printf>
															vol1 = 0;
    1a3a:	10 92 5e 38 	sts	0x385E, r1	; 0x80385e <vol1>
    1a3e:	10 92 5f 38 	sts	0x385F, r1	; 0x80385f <vol1+0x1>
    1a42:	10 92 60 38 	sts	0x3860, r1	; 0x803860 <vol1+0x2>
    1a46:	10 92 61 38 	sts	0x3861, r1	; 0x803861 <vol1+0x3>
															nivel1 = 0;
    1a4a:	10 92 56 38 	sts	0x3856, r1	; 0x803856 <nivel1>
    1a4e:	10 92 57 38 	sts	0x3857, r1	; 0x803857 <nivel1+0x1>
    1a52:	10 92 58 38 	sts	0x3858, r1	; 0x803858 <nivel1+0x2>
    1a56:	10 92 59 38 	sts	0x3859, r1	; 0x803859 <nivel1+0x3>
															bateria = 0;
    1a5a:	10 92 46 38 	sts	0x3846, r1	; 0x803846 <bateria>
    1a5e:	10 92 47 38 	sts	0x3847, r1	; 0x803847 <bateria+0x1>
    1a62:	10 92 48 38 	sts	0x3848, r1	; 0x803848 <bateria+0x2>
    1a66:	10 92 49 38 	sts	0x3849, r1	; 0x803849 <bateria+0x3>
    1a6a:	cd bf       	out	0x3d, r28	; 61
    1a6c:	de bf       	out	0x3e, r29	; 62
    1a6e:	44 c0       	rjmp	.+136    	; 0x1af8 <executeCommand+0xd0a>
														}
														else{
															if(sensor1 == 'A' && sensor2 == 'N'){
    1a70:	81 34       	cpi	r24, 0x41	; 65
    1a72:	09 f0       	breq	.+2      	; 0x1a76 <executeCommand+0xc88>
    1a74:	41 c0       	rjmp	.+130    	; 0x1af8 <executeCommand+0xd0a>
    1a76:	80 91 11 39 	lds	r24, 0x3911	; 0x803911 <sensor2>
    1a7a:	8e 34       	cpi	r24, 0x4E	; 78
    1a7c:	e9 f5       	brne	.+122    	; 0x1af8 <executeCommand+0xd0a>
																printf("RN%.2fRVO%.2f\n", nivel2,bateria);
    1a7e:	80 91 49 38 	lds	r24, 0x3849	; 0x803849 <bateria+0x3>
    1a82:	8f 93       	push	r24
    1a84:	80 91 48 38 	lds	r24, 0x3848	; 0x803848 <bateria+0x2>
    1a88:	8f 93       	push	r24
    1a8a:	80 91 47 38 	lds	r24, 0x3847	; 0x803847 <bateria+0x1>
    1a8e:	8f 93       	push	r24
    1a90:	80 91 46 38 	lds	r24, 0x3846	; 0x803846 <bateria>
    1a94:	8f 93       	push	r24
    1a96:	80 91 55 38 	lds	r24, 0x3855	; 0x803855 <nivel2+0x3>
    1a9a:	8f 93       	push	r24
    1a9c:	80 91 54 38 	lds	r24, 0x3854	; 0x803854 <nivel2+0x2>
    1aa0:	8f 93       	push	r24
    1aa2:	80 91 53 38 	lds	r24, 0x3853	; 0x803853 <nivel2+0x1>
    1aa6:	8f 93       	push	r24
    1aa8:	80 91 52 38 	lds	r24, 0x3852	; 0x803852 <nivel2>
    1aac:	8f 93       	push	r24
    1aae:	83 e2       	ldi	r24, 0x23	; 35
    1ab0:	97 eb       	ldi	r25, 0xB7	; 183
    1ab2:	9f 93       	push	r25
    1ab4:	8f 93       	push	r24
    1ab6:	0e 94 40 1a 	call	0x3480	; 0x3480 <printf>
																vol2 = 0;
    1aba:	10 92 5a 38 	sts	0x385A, r1	; 0x80385a <vol2>
    1abe:	10 92 5b 38 	sts	0x385B, r1	; 0x80385b <vol2+0x1>
    1ac2:	10 92 5c 38 	sts	0x385C, r1	; 0x80385c <vol2+0x2>
    1ac6:	10 92 5d 38 	sts	0x385D, r1	; 0x80385d <vol2+0x3>
																nivel2 = 0;
    1aca:	10 92 52 38 	sts	0x3852, r1	; 0x803852 <nivel2>
    1ace:	10 92 53 38 	sts	0x3853, r1	; 0x803853 <nivel2+0x1>
    1ad2:	10 92 54 38 	sts	0x3854, r1	; 0x803854 <nivel2+0x2>
    1ad6:	10 92 55 38 	sts	0x3855, r1	; 0x803855 <nivel2+0x3>
																bateria = 0;
    1ada:	10 92 46 38 	sts	0x3846, r1	; 0x803846 <bateria>
    1ade:	10 92 47 38 	sts	0x3847, r1	; 0x803847 <bateria+0x1>
    1ae2:	10 92 48 38 	sts	0x3848, r1	; 0x803848 <bateria+0x2>
    1ae6:	10 92 49 38 	sts	0x3849, r1	; 0x803849 <bateria+0x3>
    1aea:	cd bf       	out	0x3d, r28	; 61
    1aec:	de bf       	out	0x3e, r29	; 62
    1aee:	04 c0       	rjmp	.+8      	; 0x1af8 <executeCommand+0xd0a>
												bateria = 0;
											}
										}*/
									}
									else{
										printf("Incorrect Command\n");
    1af0:	86 e5       	ldi	r24, 0x56	; 86
    1af2:	97 eb       	ldi	r25, 0xB7	; 183
    1af4:	0e 94 56 1a 	call	0x34ac	; 0x34ac <puts>
					}
				}
			}	
		}
	}
}
    1af8:	2c 96       	adiw	r28, 0x0c	; 12
    1afa:	cd bf       	out	0x3d, r28	; 61
    1afc:	de bf       	out	0x3e, r29	; 62
    1afe:	df 91       	pop	r29
    1b00:	cf 91       	pop	r28
    1b02:	1f 91       	pop	r17
    1b04:	0f 91       	pop	r16
    1b06:	ff 90       	pop	r15
    1b08:	ef 90       	pop	r14
    1b0a:	08 95       	ret

00001b0c <main>:
}

int main(void)
{
    //int raw_press = 0;
	CLOCK32K_init();
    1b0c:	0e 94 88 01 	call	0x310	; 0x310 <CLOCK32K_init>
	PORT_LOWPOWER_Init();
    1b10:	0e 94 63 01 	call	0x2c6	; 0x2c6 <PORT_LOWPOWER_Init>
	PinInit();
    1b14:	0e 94 03 01 	call	0x206	; 0x206 <PinInit>
	ADC0_init();
    1b18:	0e 94 4e 02 	call	0x49c	; 0x49c <ADC0_init>
	
	//Activador 1er I2C
	PORTA.DIR |= PIN7_bm;
    1b1c:	e0 e0       	ldi	r30, 0x00	; 0
    1b1e:	f4 e0       	ldi	r31, 0x04	; 4
    1b20:	80 81       	ld	r24, Z
    1b22:	80 68       	ori	r24, 0x80	; 128
    1b24:	80 83       	st	Z, r24
	PORTA.PIN7CTRL &= ~PORT_PULLUPEN_bm;
    1b26:	87 89       	ldd	r24, Z+23	; 0x17
    1b28:	87 7f       	andi	r24, 0xF7	; 247
    1b2a:	87 8b       	std	Z+23, r24	; 0x17
	PORTA.OUT &= ~PIN7_bm;
    1b2c:	84 81       	ldd	r24, Z+4	; 0x04
    1b2e:	8f 77       	andi	r24, 0x7F	; 127
    1b30:	84 83       	std	Z+4, r24	; 0x04
	
	//Activador 2do I2C
	PORTC.DIR |= PIN2_bm;
    1b32:	e0 e4       	ldi	r30, 0x40	; 64
    1b34:	f4 e0       	ldi	r31, 0x04	; 4
    1b36:	80 81       	ld	r24, Z
    1b38:	84 60       	ori	r24, 0x04	; 4
    1b3a:	80 83       	st	Z, r24
	PORTC.PIN2CTRL &= ~PORT_PULLUPEN_bm;
    1b3c:	82 89       	ldd	r24, Z+18	; 0x12
    1b3e:	87 7f       	andi	r24, 0xF7	; 247
    1b40:	82 8b       	std	Z+18, r24	; 0x12
	PORTC.OUT &= ~PIN2_bm;
    1b42:	84 81       	ldd	r24, Z+4	; 0x04
    1b44:	8b 7f       	andi	r24, 0xFB	; 251
    1b46:	84 83       	std	Z+4, r24	; 0x04
	
	//Wake up pin
	PORTC.DIR &= ~(1<<0);
    1b48:	80 81       	ld	r24, Z
    1b4a:	8e 7f       	andi	r24, 0xFE	; 254
    1b4c:	80 83       	st	Z, r24
	PORTC.PIN0CTRL &= ~PORT_PULLUPEN_bm;
    1b4e:	80 89       	ldd	r24, Z+16	; 0x10
    1b50:	87 7f       	andi	r24, 0xF7	; 247
    1b52:	80 8b       	std	Z+16, r24	; 0x10
	PORTC.PIN0CTRL |= PORT_ISC_BOTHEDGES_gc;
    1b54:	80 89       	ldd	r24, Z+16	; 0x10
    1b56:	81 60       	ori	r24, 0x01	; 1
    1b58:	80 8b       	std	Z+16, r24	; 0x10
		
	CPU_CCP = CCP_IOREG_gc;
    1b5a:	88 ed       	ldi	r24, 0xD8	; 216
    1b5c:	84 bf       	out	0x34, r24	; 52
	WDT.CTRLA = WDT_PERIOD_8KCLK_gc;
    1b5e:	8b e0       	ldi	r24, 0x0B	; 11
    1b60:	80 93 00 01 	sts	0x0100, r24	; 0x800100 <__RODATA_PM_OFFSET__+0x7f8100>
	memset(command, 0, MAX_COMMAND_LEN);
    1b64:	82 e3       	ldi	r24, 0x32	; 50
    1b66:	ee e0       	ldi	r30, 0x0E	; 14
    1b68:	f8 e3       	ldi	r31, 0x38	; 56
    1b6a:	df 01       	movw	r26, r30
    1b6c:	1d 92       	st	X+, r1
    1b6e:	8a 95       	dec	r24
    1b70:	e9 f7       	brne	.-6      	; 0x1b6c <main+0x60>

	//TCA0_init();
	USART0_init();
    1b72:	0e 94 a4 01 	call	0x348	; 0x348 <USART0_init>
    1b76:	83 e3       	ldi	r24, 0x33	; 51
    1b78:	93 e0       	ldi	r25, 0x03	; 3
    1b7a:	01 97       	sbiw	r24, 0x01	; 1
    1b7c:	f1 f7       	brne	.-4      	; 0x1b7a <main+0x6e>
	
	_delay_ms(100);
	//printf("Ayuda\r");
	
	TCB0_init();
    1b7e:	0e 94 81 06 	call	0xd02	; 0xd02 <TCB0_init>

	TCB0_stop();
    1b82:	0e 94 94 06 	call	0xd28	; 0xd28 <TCB0_stop>
	//printf("Me Duermo\r");
	//printf("SM\r");
	ADC0.CTRLA = (0 << ADC_ENABLE_bp);
    1b86:	10 92 00 06 	sts	0x0600, r1	; 0x800600 <__RODATA_PM_OFFSET__+0x7f8600>
	TCA0.SPLIT.CTRLA = 0;
    1b8a:	10 92 00 0a 	sts	0x0A00, r1	; 0x800a00 <__RODATA_PM_OFFSET__+0x7f8a00>
	TCB0.CTRLA = 0;
    1b8e:	10 92 80 0a 	sts	0x0A80, r1	; 0x800a80 <__RODATA_PM_OFFSET__+0x7f8a80>
	RTC.CTRLA = 0;
    1b92:	10 92 40 01 	sts	0x0140, r1	; 0x800140 <__RODATA_PM_OFFSET__+0x7f8140>
    1b96:	a6 e6       	ldi	r26, 0x66	; 102
    1b98:	b6 e0       	ldi	r27, 0x06	; 6
    1b9a:	11 97       	sbiw	r26, 0x01	; 1
    1b9c:	f1 f7       	brne	.-4      	; 0x1b9a <main+0x8e>
    1b9e:	00 00       	nop
	_delay_ms(200);
	Sleep_Micro();
    1ba0:	0e 94 df 06 	call	0xdbe	; 0xdbe <Sleep_Micro>
    1ba4:	86 e6       	ldi	r24, 0x66	; 102
    1ba6:	96 e0       	ldi	r25, 0x06	; 6
    1ba8:	01 97       	sbiw	r24, 0x01	; 1
    1baa:	f1 f7       	brne	.-4      	; 0x1ba8 <main+0x9c>
    1bac:	00 00       	nop
	_delay_ms(200);
 	send = 0;
    1bae:	10 92 62 38 	sts	0x3862, r1	; 0x803862 <send>
    1bb2:	10 92 63 38 	sts	0x3863, r1	; 0x803863 <send+0x1>
 	segundos = 0;
    1bb6:	10 92 6e 38 	sts	0x386E, r1	; 0x80386e <segundos>
    1bba:	10 92 6f 38 	sts	0x386F, r1	; 0x80386f <segundos+0x1>
 	TCB0_start();
    1bbe:	0e 94 8c 06 	call	0xd18	; 0xd18 <TCB0_start>
	
	//printf("Me Despierto\r");
	
	sei();
    1bc2:	78 94       	sei
	
	//write_EEPROM(5120,0x00);
    /* Replace with your application code */
    while (1) 
    {
		if(send == 0){
    1bc4:	80 91 62 38 	lds	r24, 0x3862	; 0x803862 <send>
    1bc8:	90 91 63 38 	lds	r25, 0x3863	; 0x803863 <send+0x1>
    1bcc:	89 2b       	or	r24, r25
    1bce:	b9 f4       	brne	.+46     	; 0x1bfe <main+0xf2>
			TCB0_start();
    1bd0:	0e 94 8c 06 	call	0xd18	; 0xd18 <TCB0_start>
			executeCommand("MS\r");
    1bd4:	86 ed       	ldi	r24, 0xD6	; 214
    1bd6:	96 eb       	ldi	r25, 0xB6	; 182
    1bd8:	0e 94 f7 06 	call	0xdee	; 0xdee <executeCommand>
			//bateria = get_Voltage(6)*5;
			executeCommand("RT\r");
    1bdc:	84 e0       	ldi	r24, 0x04	; 4
    1bde:	97 eb       	ldi	r25, 0xB7	; 183
    1be0:	0e 94 f7 06 	call	0xdee	; 0xdee <executeCommand>
			memset(command, 0, MAX_COMMAND_LEN);
    1be4:	82 e3       	ldi	r24, 0x32	; 50
    1be6:	ee e0       	ldi	r30, 0x0E	; 14
    1be8:	f8 e3       	ldi	r31, 0x38	; 56
    1bea:	df 01       	movw	r26, r30
    1bec:	1d 92       	st	X+, r1
    1bee:	8a 95       	dec	r24
    1bf0:	e9 f7       	brne	.-6      	; 0x1bec <main+0xe0>
			send = 1;
    1bf2:	81 e0       	ldi	r24, 0x01	; 1
    1bf4:	90 e0       	ldi	r25, 0x00	; 0
    1bf6:	80 93 62 38 	sts	0x3862, r24	; 0x803862 <send>
    1bfa:	90 93 63 38 	sts	0x3863, r25	; 0x803863 <send+0x1>
		}
		if(seconds >= 30){
    1bfe:	80 91 64 38 	lds	r24, 0x3864	; 0x803864 <seconds>
    1c02:	90 91 65 38 	lds	r25, 0x3865	; 0x803865 <seconds+0x1>
    1c06:	4e 97       	sbiw	r24, 0x1e	; 30
    1c08:	78 f1       	brcs	.+94     	; 0x1c68 <main+0x15c>
			ADC0.CTRLA = (0 << ADC_ENABLE_bp);
    1c0a:	10 92 00 06 	sts	0x0600, r1	; 0x800600 <__RODATA_PM_OFFSET__+0x7f8600>
			TCA0.SPLIT.CTRLA = 0;
    1c0e:	10 92 00 0a 	sts	0x0A00, r1	; 0x800a00 <__RODATA_PM_OFFSET__+0x7f8a00>
			TCB0.CTRLA = 0;
    1c12:	10 92 80 0a 	sts	0x0A80, r1	; 0x800a80 <__RODATA_PM_OFFSET__+0x7f8a80>
			RTC.CTRLA = 0;
    1c16:	10 92 40 01 	sts	0x0140, r1	; 0x800140 <__RODATA_PM_OFFSET__+0x7f8140>
			wdt_reset();
    1c1a:	a8 95       	wdr
			if(verbose == 1){
    1c1c:	80 91 74 38 	lds	r24, 0x3874	; 0x803874 <verbose>
    1c20:	90 91 75 38 	lds	r25, 0x3875	; 0x803875 <verbose+0x1>
    1c24:	01 97       	sbiw	r24, 0x01	; 1
    1c26:	41 f4       	brne	.+16     	; 0x1c38 <main+0x12c>
				printf("Me Duermo\r");
    1c28:	88 e6       	ldi	r24, 0x68	; 104
    1c2a:	97 eb       	ldi	r25, 0xB7	; 183
    1c2c:	9f 93       	push	r25
    1c2e:	8f 93       	push	r24
    1c30:	0e 94 40 1a 	call	0x3480	; 0x3480 <printf>
    1c34:	0f 90       	pop	r0
    1c36:	0f 90       	pop	r0
			}
			TCB0_stop();
    1c38:	0e 94 94 06 	call	0xd28	; 0xd28 <TCB0_stop>
    1c3c:	86 e6       	ldi	r24, 0x66	; 102
    1c3e:	96 e0       	ldi	r25, 0x06	; 6
    1c40:	01 97       	sbiw	r24, 0x01	; 1
    1c42:	f1 f7       	brne	.-4      	; 0x1c40 <main+0x134>
    1c44:	00 00       	nop
			//printf("SM\r");
			_delay_ms(200);
			Sleep_Micro();
    1c46:	0e 94 df 06 	call	0xdbe	; 0xdbe <Sleep_Micro>
    1c4a:	a6 e6       	ldi	r26, 0x66	; 102
    1c4c:	b6 e0       	ldi	r27, 0x06	; 6
    1c4e:	11 97       	sbiw	r26, 0x01	; 1
    1c50:	f1 f7       	brne	.-4      	; 0x1c4e <main+0x142>
    1c52:	00 00       	nop
			_delay_ms(200);
			send = 0;
    1c54:	10 92 62 38 	sts	0x3862, r1	; 0x803862 <send>
    1c58:	10 92 63 38 	sts	0x3863, r1	; 0x803863 <send+0x1>
			seconds = 0;
    1c5c:	10 92 64 38 	sts	0x3864, r1	; 0x803864 <seconds>
    1c60:	10 92 65 38 	sts	0x3865, r1	; 0x803865 <seconds+0x1>
			TCB0_start();
    1c64:	0e 94 8c 06 	call	0xd18	; 0xd18 <TCB0_start>
		}
		if(flag == 1){
    1c68:	80 91 76 38 	lds	r24, 0x3876	; 0x803876 <flag>
    1c6c:	90 91 77 38 	lds	r25, 0x3877	; 0x803877 <flag+0x1>
    1c70:	01 97       	sbiw	r24, 0x01	; 1
    1c72:	09 f0       	breq	.+2      	; 0x1c76 <main+0x16a>
    1c74:	57 c0       	rjmp	.+174    	; 0x1d24 <main+0x218>
			//printf("Comando 1: %s", command1);
			executeCommand(command1);
    1c76:	8d ed       	ldi	r24, 0xDD	; 221
    1c78:	98 e3       	ldi	r25, 0x38	; 56
    1c7a:	0e 94 f7 06 	call	0xdee	; 0xdee <executeCommand>
			if(strcmp(command2,"\0") != 0 && strcmp(command3,"\0") != 0){
    1c7e:	80 91 ab 38 	lds	r24, 0x38AB	; 0x8038ab <command2>
    1c82:	88 23       	and	r24, r24
    1c84:	41 f1       	breq	.+80     	; 0x1cd6 <main+0x1ca>
    1c86:	90 91 79 38 	lds	r25, 0x3879	; 0x803879 <command3>
    1c8a:	99 23       	and	r25, r25
    1c8c:	21 f1       	breq	.+72     	; 0x1cd6 <main+0x1ca>
				memset(command1, 0, MAX_COMMAND_LEN);
    1c8e:	c2 e3       	ldi	r28, 0x32	; 50
    1c90:	ed ed       	ldi	r30, 0xDD	; 221
    1c92:	f8 e3       	ldi	r31, 0x38	; 56
    1c94:	df 01       	movw	r26, r30
    1c96:	8c 2f       	mov	r24, r28
    1c98:	1d 92       	st	X+, r1
    1c9a:	8a 95       	dec	r24
    1c9c:	e9 f7       	brne	.-6      	; 0x1c98 <main+0x18c>
				strncpy(command1,command2,MAX_COMMAND_LEN);
    1c9e:	42 e3       	ldi	r20, 0x32	; 50
    1ca0:	50 e0       	ldi	r21, 0x00	; 0
    1ca2:	6b ea       	ldi	r22, 0xAB	; 171
    1ca4:	78 e3       	ldi	r23, 0x38	; 56
    1ca6:	cf 01       	movw	r24, r30
    1ca8:	0e 94 6b 19 	call	0x32d6	; 0x32d6 <strncpy>
				memset(command2, 0, MAX_COMMAND_LEN);
    1cac:	eb ea       	ldi	r30, 0xAB	; 171
    1cae:	f8 e3       	ldi	r31, 0x38	; 56
    1cb0:	df 01       	movw	r26, r30
    1cb2:	8c 2f       	mov	r24, r28
    1cb4:	1d 92       	st	X+, r1
    1cb6:	8a 95       	dec	r24
    1cb8:	e9 f7       	brne	.-6      	; 0x1cb4 <main+0x1a8>
				strncpy(command2,command3,MAX_COMMAND_LEN);
    1cba:	42 e3       	ldi	r20, 0x32	; 50
    1cbc:	50 e0       	ldi	r21, 0x00	; 0
    1cbe:	69 e7       	ldi	r22, 0x79	; 121
    1cc0:	78 e3       	ldi	r23, 0x38	; 56
    1cc2:	cf 01       	movw	r24, r30
    1cc4:	0e 94 6b 19 	call	0x32d6	; 0x32d6 <strncpy>
				memset(command3, 0, MAX_COMMAND_LEN);
    1cc8:	e9 e7       	ldi	r30, 0x79	; 121
    1cca:	f8 e3       	ldi	r31, 0x38	; 56
    1ccc:	df 01       	movw	r26, r30
    1cce:	1d 92       	st	X+, r1
    1cd0:	ca 95       	dec	r28
    1cd2:	e9 f7       	brne	.-6      	; 0x1cce <main+0x1c2>
    1cd4:	27 c0       	rjmp	.+78     	; 0x1d24 <main+0x218>
				//printf("Comando1: %s, Comando2 %s, Comando3 %s\r",command1,command2,command3);
			}
			else{
				if(strcmp(command2,"\0") != 0 && strcmp(command3,"\0") == 0){
    1cd6:	88 23       	and	r24, r24
    1cd8:	d1 f0       	breq	.+52     	; 0x1d0e <main+0x202>
    1cda:	80 91 79 38 	lds	r24, 0x3879	; 0x803879 <command3>
    1cde:	81 11       	cpse	r24, r1
    1ce0:	16 c0       	rjmp	.+44     	; 0x1d0e <main+0x202>
					//executeCommand(command1);
					memset(command1, 0, MAX_COMMAND_LEN);
    1ce2:	c2 e3       	ldi	r28, 0x32	; 50
    1ce4:	ed ed       	ldi	r30, 0xDD	; 221
    1ce6:	f8 e3       	ldi	r31, 0x38	; 56
    1ce8:	df 01       	movw	r26, r30
    1cea:	8c 2f       	mov	r24, r28
    1cec:	1d 92       	st	X+, r1
    1cee:	8a 95       	dec	r24
    1cf0:	e9 f7       	brne	.-6      	; 0x1cec <main+0x1e0>
					strncpy(command1,command2,MAX_COMMAND_LEN);
    1cf2:	42 e3       	ldi	r20, 0x32	; 50
    1cf4:	50 e0       	ldi	r21, 0x00	; 0
    1cf6:	6b ea       	ldi	r22, 0xAB	; 171
    1cf8:	78 e3       	ldi	r23, 0x38	; 56
    1cfa:	cf 01       	movw	r24, r30
    1cfc:	0e 94 6b 19 	call	0x32d6	; 0x32d6 <strncpy>
					memset(command2, 0, MAX_COMMAND_LEN);
    1d00:	eb ea       	ldi	r30, 0xAB	; 171
    1d02:	f8 e3       	ldi	r31, 0x38	; 56
    1d04:	df 01       	movw	r26, r30
    1d06:	1d 92       	st	X+, r1
    1d08:	ca 95       	dec	r28
    1d0a:	e9 f7       	brne	.-6      	; 0x1d06 <main+0x1fa>
    1d0c:	0b c0       	rjmp	.+22     	; 0x1d24 <main+0x218>
					//printf("Comando1: %s, Comando2 %s, Comando3 %s\r",command1,command2,command3); 
				}
				else{
					//executeCommand(command1);
					//eraseCommand(command1);
					memset(command1, 0, MAX_COMMAND_LEN);
    1d0e:	82 e3       	ldi	r24, 0x32	; 50
    1d10:	ed ed       	ldi	r30, 0xDD	; 221
    1d12:	f8 e3       	ldi	r31, 0x38	; 56
    1d14:	df 01       	movw	r26, r30
    1d16:	1d 92       	st	X+, r1
    1d18:	8a 95       	dec	r24
    1d1a:	e9 f7       	brne	.-6      	; 0x1d16 <main+0x20a>
					//printf("ComandoE 1: %s", command1);
					flag = 0;
    1d1c:	10 92 76 38 	sts	0x3876, r1	; 0x803876 <flag>
    1d20:	10 92 77 38 	sts	0x3877, r1	; 0x803877 <flag+0x1>
				}
			}
		}
		ADC0.CTRLA = (0 << ADC_ENABLE_bp);
    1d24:	10 92 00 06 	sts	0x0600, r1	; 0x800600 <__RODATA_PM_OFFSET__+0x7f8600>
		TCA0.SPLIT.CTRLA = 0;
    1d28:	10 92 00 0a 	sts	0x0A00, r1	; 0x800a00 <__RODATA_PM_OFFSET__+0x7f8a00>
		//TCB0.CTRLA = 0;
		RTC.CTRLA = 0;
    1d2c:	10 92 40 01 	sts	0x0140, r1	; 0x800140 <__RODATA_PM_OFFSET__+0x7f8140>
		wdt_reset();
    1d30:	a8 95       	wdr
    }
    1d32:	48 cf       	rjmp	.-368    	; 0x1bc4 <main+0xb8>

00001d34 <__subsf3>:
    1d34:	50 58       	subi	r21, 0x80	; 128

00001d36 <__addsf3>:
    1d36:	bb 27       	eor	r27, r27
    1d38:	aa 27       	eor	r26, r26
    1d3a:	0e 94 b2 0e 	call	0x1d64	; 0x1d64 <__addsf3x>
    1d3e:	0c 94 f6 0f 	jmp	0x1fec	; 0x1fec <__fp_round>
    1d42:	0e 94 e8 0f 	call	0x1fd0	; 0x1fd0 <__fp_pscA>
    1d46:	38 f0       	brcs	.+14     	; 0x1d56 <__addsf3+0x20>
    1d48:	0e 94 ef 0f 	call	0x1fde	; 0x1fde <__fp_pscB>
    1d4c:	20 f0       	brcs	.+8      	; 0x1d56 <__addsf3+0x20>
    1d4e:	39 f4       	brne	.+14     	; 0x1d5e <__addsf3+0x28>
    1d50:	9f 3f       	cpi	r25, 0xFF	; 255
    1d52:	19 f4       	brne	.+6      	; 0x1d5a <__addsf3+0x24>
    1d54:	26 f4       	brtc	.+8      	; 0x1d5e <__addsf3+0x28>
    1d56:	0c 94 e5 0f 	jmp	0x1fca	; 0x1fca <__fp_nan>
    1d5a:	0e f4       	brtc	.+2      	; 0x1d5e <__addsf3+0x28>
    1d5c:	e0 95       	com	r30
    1d5e:	e7 fb       	bst	r30, 7
    1d60:	0c 94 df 0f 	jmp	0x1fbe	; 0x1fbe <__fp_inf>

00001d64 <__addsf3x>:
    1d64:	e9 2f       	mov	r30, r25
    1d66:	0e 94 07 10 	call	0x200e	; 0x200e <__fp_split3>
    1d6a:	58 f3       	brcs	.-42     	; 0x1d42 <__addsf3+0xc>
    1d6c:	ba 17       	cp	r27, r26
    1d6e:	62 07       	cpc	r22, r18
    1d70:	73 07       	cpc	r23, r19
    1d72:	84 07       	cpc	r24, r20
    1d74:	95 07       	cpc	r25, r21
    1d76:	20 f0       	brcs	.+8      	; 0x1d80 <__addsf3x+0x1c>
    1d78:	79 f4       	brne	.+30     	; 0x1d98 <__addsf3x+0x34>
    1d7a:	a6 f5       	brtc	.+104    	; 0x1de4 <__addsf3x+0x80>
    1d7c:	0c 94 29 10 	jmp	0x2052	; 0x2052 <__fp_zero>
    1d80:	0e f4       	brtc	.+2      	; 0x1d84 <__addsf3x+0x20>
    1d82:	e0 95       	com	r30
    1d84:	0b 2e       	mov	r0, r27
    1d86:	ba 2f       	mov	r27, r26
    1d88:	a0 2d       	mov	r26, r0
    1d8a:	0b 01       	movw	r0, r22
    1d8c:	b9 01       	movw	r22, r18
    1d8e:	90 01       	movw	r18, r0
    1d90:	0c 01       	movw	r0, r24
    1d92:	ca 01       	movw	r24, r20
    1d94:	a0 01       	movw	r20, r0
    1d96:	11 24       	eor	r1, r1
    1d98:	ff 27       	eor	r31, r31
    1d9a:	59 1b       	sub	r21, r25
    1d9c:	99 f0       	breq	.+38     	; 0x1dc4 <__addsf3x+0x60>
    1d9e:	59 3f       	cpi	r21, 0xF9	; 249
    1da0:	50 f4       	brcc	.+20     	; 0x1db6 <__addsf3x+0x52>
    1da2:	50 3e       	cpi	r21, 0xE0	; 224
    1da4:	68 f1       	brcs	.+90     	; 0x1e00 <__addsf3x+0x9c>
    1da6:	1a 16       	cp	r1, r26
    1da8:	f0 40       	sbci	r31, 0x00	; 0
    1daa:	a2 2f       	mov	r26, r18
    1dac:	23 2f       	mov	r18, r19
    1dae:	34 2f       	mov	r19, r20
    1db0:	44 27       	eor	r20, r20
    1db2:	58 5f       	subi	r21, 0xF8	; 248
    1db4:	f3 cf       	rjmp	.-26     	; 0x1d9c <__addsf3x+0x38>
    1db6:	46 95       	lsr	r20
    1db8:	37 95       	ror	r19
    1dba:	27 95       	ror	r18
    1dbc:	a7 95       	ror	r26
    1dbe:	f0 40       	sbci	r31, 0x00	; 0
    1dc0:	53 95       	inc	r21
    1dc2:	c9 f7       	brne	.-14     	; 0x1db6 <__addsf3x+0x52>
    1dc4:	7e f4       	brtc	.+30     	; 0x1de4 <__addsf3x+0x80>
    1dc6:	1f 16       	cp	r1, r31
    1dc8:	ba 0b       	sbc	r27, r26
    1dca:	62 0b       	sbc	r22, r18
    1dcc:	73 0b       	sbc	r23, r19
    1dce:	84 0b       	sbc	r24, r20
    1dd0:	ba f0       	brmi	.+46     	; 0x1e00 <__addsf3x+0x9c>
    1dd2:	91 50       	subi	r25, 0x01	; 1
    1dd4:	a1 f0       	breq	.+40     	; 0x1dfe <__addsf3x+0x9a>
    1dd6:	ff 0f       	add	r31, r31
    1dd8:	bb 1f       	adc	r27, r27
    1dda:	66 1f       	adc	r22, r22
    1ddc:	77 1f       	adc	r23, r23
    1dde:	88 1f       	adc	r24, r24
    1de0:	c2 f7       	brpl	.-16     	; 0x1dd2 <__addsf3x+0x6e>
    1de2:	0e c0       	rjmp	.+28     	; 0x1e00 <__addsf3x+0x9c>
    1de4:	ba 0f       	add	r27, r26
    1de6:	62 1f       	adc	r22, r18
    1de8:	73 1f       	adc	r23, r19
    1dea:	84 1f       	adc	r24, r20
    1dec:	48 f4       	brcc	.+18     	; 0x1e00 <__addsf3x+0x9c>
    1dee:	87 95       	ror	r24
    1df0:	77 95       	ror	r23
    1df2:	67 95       	ror	r22
    1df4:	b7 95       	ror	r27
    1df6:	f7 95       	ror	r31
    1df8:	9e 3f       	cpi	r25, 0xFE	; 254
    1dfa:	08 f0       	brcs	.+2      	; 0x1dfe <__addsf3x+0x9a>
    1dfc:	b0 cf       	rjmp	.-160    	; 0x1d5e <__addsf3+0x28>
    1dfe:	93 95       	inc	r25
    1e00:	88 0f       	add	r24, r24
    1e02:	08 f0       	brcs	.+2      	; 0x1e06 <__addsf3x+0xa2>
    1e04:	99 27       	eor	r25, r25
    1e06:	ee 0f       	add	r30, r30
    1e08:	97 95       	ror	r25
    1e0a:	87 95       	ror	r24
    1e0c:	08 95       	ret

00001e0e <__cmpsf2>:
    1e0e:	0e 94 bb 0f 	call	0x1f76	; 0x1f76 <__fp_cmp>
    1e12:	08 f4       	brcc	.+2      	; 0x1e16 <__cmpsf2+0x8>
    1e14:	81 e0       	ldi	r24, 0x01	; 1
    1e16:	08 95       	ret

00001e18 <__divsf3>:
    1e18:	0e 94 20 0f 	call	0x1e40	; 0x1e40 <__divsf3x>
    1e1c:	0c 94 f6 0f 	jmp	0x1fec	; 0x1fec <__fp_round>
    1e20:	0e 94 ef 0f 	call	0x1fde	; 0x1fde <__fp_pscB>
    1e24:	58 f0       	brcs	.+22     	; 0x1e3c <__divsf3+0x24>
    1e26:	0e 94 e8 0f 	call	0x1fd0	; 0x1fd0 <__fp_pscA>
    1e2a:	40 f0       	brcs	.+16     	; 0x1e3c <__divsf3+0x24>
    1e2c:	29 f4       	brne	.+10     	; 0x1e38 <__divsf3+0x20>
    1e2e:	5f 3f       	cpi	r21, 0xFF	; 255
    1e30:	29 f0       	breq	.+10     	; 0x1e3c <__divsf3+0x24>
    1e32:	0c 94 df 0f 	jmp	0x1fbe	; 0x1fbe <__fp_inf>
    1e36:	51 11       	cpse	r21, r1
    1e38:	0c 94 2a 10 	jmp	0x2054	; 0x2054 <__fp_szero>
    1e3c:	0c 94 e5 0f 	jmp	0x1fca	; 0x1fca <__fp_nan>

00001e40 <__divsf3x>:
    1e40:	0e 94 07 10 	call	0x200e	; 0x200e <__fp_split3>
    1e44:	68 f3       	brcs	.-38     	; 0x1e20 <__divsf3+0x8>

00001e46 <__divsf3_pse>:
    1e46:	99 23       	and	r25, r25
    1e48:	b1 f3       	breq	.-20     	; 0x1e36 <__divsf3+0x1e>
    1e4a:	55 23       	and	r21, r21
    1e4c:	91 f3       	breq	.-28     	; 0x1e32 <__divsf3+0x1a>
    1e4e:	95 1b       	sub	r25, r21
    1e50:	55 0b       	sbc	r21, r21
    1e52:	bb 27       	eor	r27, r27
    1e54:	aa 27       	eor	r26, r26
    1e56:	62 17       	cp	r22, r18
    1e58:	73 07       	cpc	r23, r19
    1e5a:	84 07       	cpc	r24, r20
    1e5c:	38 f0       	brcs	.+14     	; 0x1e6c <__divsf3_pse+0x26>
    1e5e:	9f 5f       	subi	r25, 0xFF	; 255
    1e60:	5f 4f       	sbci	r21, 0xFF	; 255
    1e62:	22 0f       	add	r18, r18
    1e64:	33 1f       	adc	r19, r19
    1e66:	44 1f       	adc	r20, r20
    1e68:	aa 1f       	adc	r26, r26
    1e6a:	a9 f3       	breq	.-22     	; 0x1e56 <__divsf3_pse+0x10>
    1e6c:	35 d0       	rcall	.+106    	; 0x1ed8 <__divsf3_pse+0x92>
    1e6e:	0e 2e       	mov	r0, r30
    1e70:	3a f0       	brmi	.+14     	; 0x1e80 <__divsf3_pse+0x3a>
    1e72:	e0 e8       	ldi	r30, 0x80	; 128
    1e74:	32 d0       	rcall	.+100    	; 0x1eda <__divsf3_pse+0x94>
    1e76:	91 50       	subi	r25, 0x01	; 1
    1e78:	50 40       	sbci	r21, 0x00	; 0
    1e7a:	e6 95       	lsr	r30
    1e7c:	00 1c       	adc	r0, r0
    1e7e:	ca f7       	brpl	.-14     	; 0x1e72 <__divsf3_pse+0x2c>
    1e80:	2b d0       	rcall	.+86     	; 0x1ed8 <__divsf3_pse+0x92>
    1e82:	fe 2f       	mov	r31, r30
    1e84:	29 d0       	rcall	.+82     	; 0x1ed8 <__divsf3_pse+0x92>
    1e86:	66 0f       	add	r22, r22
    1e88:	77 1f       	adc	r23, r23
    1e8a:	88 1f       	adc	r24, r24
    1e8c:	bb 1f       	adc	r27, r27
    1e8e:	26 17       	cp	r18, r22
    1e90:	37 07       	cpc	r19, r23
    1e92:	48 07       	cpc	r20, r24
    1e94:	ab 07       	cpc	r26, r27
    1e96:	b0 e8       	ldi	r27, 0x80	; 128
    1e98:	09 f0       	breq	.+2      	; 0x1e9c <__divsf3_pse+0x56>
    1e9a:	bb 0b       	sbc	r27, r27
    1e9c:	80 2d       	mov	r24, r0
    1e9e:	bf 01       	movw	r22, r30
    1ea0:	ff 27       	eor	r31, r31
    1ea2:	93 58       	subi	r25, 0x83	; 131
    1ea4:	5f 4f       	sbci	r21, 0xFF	; 255
    1ea6:	3a f0       	brmi	.+14     	; 0x1eb6 <__divsf3_pse+0x70>
    1ea8:	9e 3f       	cpi	r25, 0xFE	; 254
    1eaa:	51 05       	cpc	r21, r1
    1eac:	78 f0       	brcs	.+30     	; 0x1ecc <__divsf3_pse+0x86>
    1eae:	0c 94 df 0f 	jmp	0x1fbe	; 0x1fbe <__fp_inf>
    1eb2:	0c 94 2a 10 	jmp	0x2054	; 0x2054 <__fp_szero>
    1eb6:	5f 3f       	cpi	r21, 0xFF	; 255
    1eb8:	e4 f3       	brlt	.-8      	; 0x1eb2 <__divsf3_pse+0x6c>
    1eba:	98 3e       	cpi	r25, 0xE8	; 232
    1ebc:	d4 f3       	brlt	.-12     	; 0x1eb2 <__divsf3_pse+0x6c>
    1ebe:	86 95       	lsr	r24
    1ec0:	77 95       	ror	r23
    1ec2:	67 95       	ror	r22
    1ec4:	b7 95       	ror	r27
    1ec6:	f7 95       	ror	r31
    1ec8:	9f 5f       	subi	r25, 0xFF	; 255
    1eca:	c9 f7       	brne	.-14     	; 0x1ebe <__divsf3_pse+0x78>
    1ecc:	88 0f       	add	r24, r24
    1ece:	91 1d       	adc	r25, r1
    1ed0:	96 95       	lsr	r25
    1ed2:	87 95       	ror	r24
    1ed4:	97 f9       	bld	r25, 7
    1ed6:	08 95       	ret
    1ed8:	e1 e0       	ldi	r30, 0x01	; 1
    1eda:	66 0f       	add	r22, r22
    1edc:	77 1f       	adc	r23, r23
    1ede:	88 1f       	adc	r24, r24
    1ee0:	bb 1f       	adc	r27, r27
    1ee2:	62 17       	cp	r22, r18
    1ee4:	73 07       	cpc	r23, r19
    1ee6:	84 07       	cpc	r24, r20
    1ee8:	ba 07       	cpc	r27, r26
    1eea:	20 f0       	brcs	.+8      	; 0x1ef4 <__divsf3_pse+0xae>
    1eec:	62 1b       	sub	r22, r18
    1eee:	73 0b       	sbc	r23, r19
    1ef0:	84 0b       	sbc	r24, r20
    1ef2:	ba 0b       	sbc	r27, r26
    1ef4:	ee 1f       	adc	r30, r30
    1ef6:	88 f7       	brcc	.-30     	; 0x1eda <__divsf3_pse+0x94>
    1ef8:	e0 95       	com	r30
    1efa:	08 95       	ret

00001efc <__floatunsisf>:
    1efc:	e8 94       	clt
    1efe:	09 c0       	rjmp	.+18     	; 0x1f12 <__floatsisf+0x12>

00001f00 <__floatsisf>:
    1f00:	97 fb       	bst	r25, 7
    1f02:	3e f4       	brtc	.+14     	; 0x1f12 <__floatsisf+0x12>
    1f04:	90 95       	com	r25
    1f06:	80 95       	com	r24
    1f08:	70 95       	com	r23
    1f0a:	61 95       	neg	r22
    1f0c:	7f 4f       	sbci	r23, 0xFF	; 255
    1f0e:	8f 4f       	sbci	r24, 0xFF	; 255
    1f10:	9f 4f       	sbci	r25, 0xFF	; 255
    1f12:	99 23       	and	r25, r25
    1f14:	a9 f0       	breq	.+42     	; 0x1f40 <__floatsisf+0x40>
    1f16:	f9 2f       	mov	r31, r25
    1f18:	96 e9       	ldi	r25, 0x96	; 150
    1f1a:	bb 27       	eor	r27, r27
    1f1c:	93 95       	inc	r25
    1f1e:	f6 95       	lsr	r31
    1f20:	87 95       	ror	r24
    1f22:	77 95       	ror	r23
    1f24:	67 95       	ror	r22
    1f26:	b7 95       	ror	r27
    1f28:	f1 11       	cpse	r31, r1
    1f2a:	f8 cf       	rjmp	.-16     	; 0x1f1c <__floatsisf+0x1c>
    1f2c:	fa f4       	brpl	.+62     	; 0x1f6c <__floatsisf+0x6c>
    1f2e:	bb 0f       	add	r27, r27
    1f30:	11 f4       	brne	.+4      	; 0x1f36 <__floatsisf+0x36>
    1f32:	60 ff       	sbrs	r22, 0
    1f34:	1b c0       	rjmp	.+54     	; 0x1f6c <__floatsisf+0x6c>
    1f36:	6f 5f       	subi	r22, 0xFF	; 255
    1f38:	7f 4f       	sbci	r23, 0xFF	; 255
    1f3a:	8f 4f       	sbci	r24, 0xFF	; 255
    1f3c:	9f 4f       	sbci	r25, 0xFF	; 255
    1f3e:	16 c0       	rjmp	.+44     	; 0x1f6c <__floatsisf+0x6c>
    1f40:	88 23       	and	r24, r24
    1f42:	11 f0       	breq	.+4      	; 0x1f48 <__floatsisf+0x48>
    1f44:	96 e9       	ldi	r25, 0x96	; 150
    1f46:	11 c0       	rjmp	.+34     	; 0x1f6a <__floatsisf+0x6a>
    1f48:	77 23       	and	r23, r23
    1f4a:	21 f0       	breq	.+8      	; 0x1f54 <__floatsisf+0x54>
    1f4c:	9e e8       	ldi	r25, 0x8E	; 142
    1f4e:	87 2f       	mov	r24, r23
    1f50:	76 2f       	mov	r23, r22
    1f52:	05 c0       	rjmp	.+10     	; 0x1f5e <__floatsisf+0x5e>
    1f54:	66 23       	and	r22, r22
    1f56:	71 f0       	breq	.+28     	; 0x1f74 <__floatsisf+0x74>
    1f58:	96 e8       	ldi	r25, 0x86	; 134
    1f5a:	86 2f       	mov	r24, r22
    1f5c:	70 e0       	ldi	r23, 0x00	; 0
    1f5e:	60 e0       	ldi	r22, 0x00	; 0
    1f60:	2a f0       	brmi	.+10     	; 0x1f6c <__floatsisf+0x6c>
    1f62:	9a 95       	dec	r25
    1f64:	66 0f       	add	r22, r22
    1f66:	77 1f       	adc	r23, r23
    1f68:	88 1f       	adc	r24, r24
    1f6a:	da f7       	brpl	.-10     	; 0x1f62 <__floatsisf+0x62>
    1f6c:	88 0f       	add	r24, r24
    1f6e:	96 95       	lsr	r25
    1f70:	87 95       	ror	r24
    1f72:	97 f9       	bld	r25, 7
    1f74:	08 95       	ret

00001f76 <__fp_cmp>:
    1f76:	99 0f       	add	r25, r25
    1f78:	00 08       	sbc	r0, r0
    1f7a:	55 0f       	add	r21, r21
    1f7c:	aa 0b       	sbc	r26, r26
    1f7e:	e0 e8       	ldi	r30, 0x80	; 128
    1f80:	fe ef       	ldi	r31, 0xFE	; 254
    1f82:	16 16       	cp	r1, r22
    1f84:	17 06       	cpc	r1, r23
    1f86:	e8 07       	cpc	r30, r24
    1f88:	f9 07       	cpc	r31, r25
    1f8a:	c0 f0       	brcs	.+48     	; 0x1fbc <__fp_cmp+0x46>
    1f8c:	12 16       	cp	r1, r18
    1f8e:	13 06       	cpc	r1, r19
    1f90:	e4 07       	cpc	r30, r20
    1f92:	f5 07       	cpc	r31, r21
    1f94:	98 f0       	brcs	.+38     	; 0x1fbc <__fp_cmp+0x46>
    1f96:	62 1b       	sub	r22, r18
    1f98:	73 0b       	sbc	r23, r19
    1f9a:	84 0b       	sbc	r24, r20
    1f9c:	95 0b       	sbc	r25, r21
    1f9e:	39 f4       	brne	.+14     	; 0x1fae <__fp_cmp+0x38>
    1fa0:	0a 26       	eor	r0, r26
    1fa2:	61 f0       	breq	.+24     	; 0x1fbc <__fp_cmp+0x46>
    1fa4:	23 2b       	or	r18, r19
    1fa6:	24 2b       	or	r18, r20
    1fa8:	25 2b       	or	r18, r21
    1faa:	21 f4       	brne	.+8      	; 0x1fb4 <__fp_cmp+0x3e>
    1fac:	08 95       	ret
    1fae:	0a 26       	eor	r0, r26
    1fb0:	09 f4       	brne	.+2      	; 0x1fb4 <__fp_cmp+0x3e>
    1fb2:	a1 40       	sbci	r26, 0x01	; 1
    1fb4:	a6 95       	lsr	r26
    1fb6:	8f ef       	ldi	r24, 0xFF	; 255
    1fb8:	81 1d       	adc	r24, r1
    1fba:	81 1d       	adc	r24, r1
    1fbc:	08 95       	ret

00001fbe <__fp_inf>:
    1fbe:	97 f9       	bld	r25, 7
    1fc0:	9f 67       	ori	r25, 0x7F	; 127
    1fc2:	80 e8       	ldi	r24, 0x80	; 128
    1fc4:	70 e0       	ldi	r23, 0x00	; 0
    1fc6:	60 e0       	ldi	r22, 0x00	; 0
    1fc8:	08 95       	ret

00001fca <__fp_nan>:
    1fca:	9f ef       	ldi	r25, 0xFF	; 255
    1fcc:	80 ec       	ldi	r24, 0xC0	; 192
    1fce:	08 95       	ret

00001fd0 <__fp_pscA>:
    1fd0:	00 24       	eor	r0, r0
    1fd2:	0a 94       	dec	r0
    1fd4:	16 16       	cp	r1, r22
    1fd6:	17 06       	cpc	r1, r23
    1fd8:	18 06       	cpc	r1, r24
    1fda:	09 06       	cpc	r0, r25
    1fdc:	08 95       	ret

00001fde <__fp_pscB>:
    1fde:	00 24       	eor	r0, r0
    1fe0:	0a 94       	dec	r0
    1fe2:	12 16       	cp	r1, r18
    1fe4:	13 06       	cpc	r1, r19
    1fe6:	14 06       	cpc	r1, r20
    1fe8:	05 06       	cpc	r0, r21
    1fea:	08 95       	ret

00001fec <__fp_round>:
    1fec:	09 2e       	mov	r0, r25
    1fee:	03 94       	inc	r0
    1ff0:	00 0c       	add	r0, r0
    1ff2:	11 f4       	brne	.+4      	; 0x1ff8 <__fp_round+0xc>
    1ff4:	88 23       	and	r24, r24
    1ff6:	52 f0       	brmi	.+20     	; 0x200c <__fp_round+0x20>
    1ff8:	bb 0f       	add	r27, r27
    1ffa:	40 f4       	brcc	.+16     	; 0x200c <__fp_round+0x20>
    1ffc:	bf 2b       	or	r27, r31
    1ffe:	11 f4       	brne	.+4      	; 0x2004 <__fp_round+0x18>
    2000:	60 ff       	sbrs	r22, 0
    2002:	04 c0       	rjmp	.+8      	; 0x200c <__fp_round+0x20>
    2004:	6f 5f       	subi	r22, 0xFF	; 255
    2006:	7f 4f       	sbci	r23, 0xFF	; 255
    2008:	8f 4f       	sbci	r24, 0xFF	; 255
    200a:	9f 4f       	sbci	r25, 0xFF	; 255
    200c:	08 95       	ret

0000200e <__fp_split3>:
    200e:	57 fd       	sbrc	r21, 7
    2010:	90 58       	subi	r25, 0x80	; 128
    2012:	44 0f       	add	r20, r20
    2014:	55 1f       	adc	r21, r21
    2016:	59 f0       	breq	.+22     	; 0x202e <__fp_splitA+0x10>
    2018:	5f 3f       	cpi	r21, 0xFF	; 255
    201a:	71 f0       	breq	.+28     	; 0x2038 <__fp_splitA+0x1a>
    201c:	47 95       	ror	r20

0000201e <__fp_splitA>:
    201e:	88 0f       	add	r24, r24
    2020:	97 fb       	bst	r25, 7
    2022:	99 1f       	adc	r25, r25
    2024:	61 f0       	breq	.+24     	; 0x203e <__fp_splitA+0x20>
    2026:	9f 3f       	cpi	r25, 0xFF	; 255
    2028:	79 f0       	breq	.+30     	; 0x2048 <__fp_splitA+0x2a>
    202a:	87 95       	ror	r24
    202c:	08 95       	ret
    202e:	12 16       	cp	r1, r18
    2030:	13 06       	cpc	r1, r19
    2032:	14 06       	cpc	r1, r20
    2034:	55 1f       	adc	r21, r21
    2036:	f2 cf       	rjmp	.-28     	; 0x201c <__fp_split3+0xe>
    2038:	46 95       	lsr	r20
    203a:	f1 df       	rcall	.-30     	; 0x201e <__fp_splitA>
    203c:	08 c0       	rjmp	.+16     	; 0x204e <__fp_splitA+0x30>
    203e:	16 16       	cp	r1, r22
    2040:	17 06       	cpc	r1, r23
    2042:	18 06       	cpc	r1, r24
    2044:	99 1f       	adc	r25, r25
    2046:	f1 cf       	rjmp	.-30     	; 0x202a <__fp_splitA+0xc>
    2048:	86 95       	lsr	r24
    204a:	71 05       	cpc	r23, r1
    204c:	61 05       	cpc	r22, r1
    204e:	08 94       	sec
    2050:	08 95       	ret

00002052 <__fp_zero>:
    2052:	e8 94       	clt

00002054 <__fp_szero>:
    2054:	bb 27       	eor	r27, r27
    2056:	66 27       	eor	r22, r22
    2058:	77 27       	eor	r23, r23
    205a:	cb 01       	movw	r24, r22
    205c:	97 f9       	bld	r25, 7
    205e:	08 95       	ret

00002060 <__gesf2>:
    2060:	0e 94 bb 0f 	call	0x1f76	; 0x1f76 <__fp_cmp>
    2064:	08 f4       	brcc	.+2      	; 0x2068 <__gesf2+0x8>
    2066:	8f ef       	ldi	r24, 0xFF	; 255
    2068:	08 95       	ret

0000206a <__mulsf3>:
    206a:	0e 94 48 10 	call	0x2090	; 0x2090 <__mulsf3x>
    206e:	0c 94 f6 0f 	jmp	0x1fec	; 0x1fec <__fp_round>
    2072:	0e 94 e8 0f 	call	0x1fd0	; 0x1fd0 <__fp_pscA>
    2076:	38 f0       	brcs	.+14     	; 0x2086 <__mulsf3+0x1c>
    2078:	0e 94 ef 0f 	call	0x1fde	; 0x1fde <__fp_pscB>
    207c:	20 f0       	brcs	.+8      	; 0x2086 <__mulsf3+0x1c>
    207e:	95 23       	and	r25, r21
    2080:	11 f0       	breq	.+4      	; 0x2086 <__mulsf3+0x1c>
    2082:	0c 94 df 0f 	jmp	0x1fbe	; 0x1fbe <__fp_inf>
    2086:	0c 94 e5 0f 	jmp	0x1fca	; 0x1fca <__fp_nan>
    208a:	11 24       	eor	r1, r1
    208c:	0c 94 2a 10 	jmp	0x2054	; 0x2054 <__fp_szero>

00002090 <__mulsf3x>:
    2090:	0e 94 07 10 	call	0x200e	; 0x200e <__fp_split3>
    2094:	70 f3       	brcs	.-36     	; 0x2072 <__mulsf3+0x8>

00002096 <__mulsf3_pse>:
    2096:	95 9f       	mul	r25, r21
    2098:	c1 f3       	breq	.-16     	; 0x208a <__mulsf3+0x20>
    209a:	95 0f       	add	r25, r21
    209c:	50 e0       	ldi	r21, 0x00	; 0
    209e:	55 1f       	adc	r21, r21
    20a0:	62 9f       	mul	r22, r18
    20a2:	f0 01       	movw	r30, r0
    20a4:	72 9f       	mul	r23, r18
    20a6:	bb 27       	eor	r27, r27
    20a8:	f0 0d       	add	r31, r0
    20aa:	b1 1d       	adc	r27, r1
    20ac:	63 9f       	mul	r22, r19
    20ae:	aa 27       	eor	r26, r26
    20b0:	f0 0d       	add	r31, r0
    20b2:	b1 1d       	adc	r27, r1
    20b4:	aa 1f       	adc	r26, r26
    20b6:	64 9f       	mul	r22, r20
    20b8:	66 27       	eor	r22, r22
    20ba:	b0 0d       	add	r27, r0
    20bc:	a1 1d       	adc	r26, r1
    20be:	66 1f       	adc	r22, r22
    20c0:	82 9f       	mul	r24, r18
    20c2:	22 27       	eor	r18, r18
    20c4:	b0 0d       	add	r27, r0
    20c6:	a1 1d       	adc	r26, r1
    20c8:	62 1f       	adc	r22, r18
    20ca:	73 9f       	mul	r23, r19
    20cc:	b0 0d       	add	r27, r0
    20ce:	a1 1d       	adc	r26, r1
    20d0:	62 1f       	adc	r22, r18
    20d2:	83 9f       	mul	r24, r19
    20d4:	a0 0d       	add	r26, r0
    20d6:	61 1d       	adc	r22, r1
    20d8:	22 1f       	adc	r18, r18
    20da:	74 9f       	mul	r23, r20
    20dc:	33 27       	eor	r19, r19
    20de:	a0 0d       	add	r26, r0
    20e0:	61 1d       	adc	r22, r1
    20e2:	23 1f       	adc	r18, r19
    20e4:	84 9f       	mul	r24, r20
    20e6:	60 0d       	add	r22, r0
    20e8:	21 1d       	adc	r18, r1
    20ea:	82 2f       	mov	r24, r18
    20ec:	76 2f       	mov	r23, r22
    20ee:	6a 2f       	mov	r22, r26
    20f0:	11 24       	eor	r1, r1
    20f2:	9f 57       	subi	r25, 0x7F	; 127
    20f4:	50 40       	sbci	r21, 0x00	; 0
    20f6:	9a f0       	brmi	.+38     	; 0x211e <__mulsf3_pse+0x88>
    20f8:	f1 f0       	breq	.+60     	; 0x2136 <__mulsf3_pse+0xa0>
    20fa:	88 23       	and	r24, r24
    20fc:	4a f0       	brmi	.+18     	; 0x2110 <__mulsf3_pse+0x7a>
    20fe:	ee 0f       	add	r30, r30
    2100:	ff 1f       	adc	r31, r31
    2102:	bb 1f       	adc	r27, r27
    2104:	66 1f       	adc	r22, r22
    2106:	77 1f       	adc	r23, r23
    2108:	88 1f       	adc	r24, r24
    210a:	91 50       	subi	r25, 0x01	; 1
    210c:	50 40       	sbci	r21, 0x00	; 0
    210e:	a9 f7       	brne	.-22     	; 0x20fa <__mulsf3_pse+0x64>
    2110:	9e 3f       	cpi	r25, 0xFE	; 254
    2112:	51 05       	cpc	r21, r1
    2114:	80 f0       	brcs	.+32     	; 0x2136 <__mulsf3_pse+0xa0>
    2116:	0c 94 df 0f 	jmp	0x1fbe	; 0x1fbe <__fp_inf>
    211a:	0c 94 2a 10 	jmp	0x2054	; 0x2054 <__fp_szero>
    211e:	5f 3f       	cpi	r21, 0xFF	; 255
    2120:	e4 f3       	brlt	.-8      	; 0x211a <__mulsf3_pse+0x84>
    2122:	98 3e       	cpi	r25, 0xE8	; 232
    2124:	d4 f3       	brlt	.-12     	; 0x211a <__mulsf3_pse+0x84>
    2126:	86 95       	lsr	r24
    2128:	77 95       	ror	r23
    212a:	67 95       	ror	r22
    212c:	b7 95       	ror	r27
    212e:	f7 95       	ror	r31
    2130:	e7 95       	ror	r30
    2132:	9f 5f       	subi	r25, 0xFF	; 255
    2134:	c1 f7       	brne	.-16     	; 0x2126 <__mulsf3_pse+0x90>
    2136:	fe 2b       	or	r31, r30
    2138:	88 0f       	add	r24, r24
    213a:	91 1d       	adc	r25, r1
    213c:	96 95       	lsr	r25
    213e:	87 95       	ror	r24
    2140:	97 f9       	bld	r25, 7
    2142:	08 95       	ret

00002144 <putval>:
    2144:	20 fd       	sbrc	r18, 0
    2146:	09 c0       	rjmp	.+18     	; 0x215a <putval+0x16>
    2148:	fc 01       	movw	r30, r24
    214a:	23 fd       	sbrc	r18, 3
    214c:	05 c0       	rjmp	.+10     	; 0x2158 <putval+0x14>
    214e:	22 ff       	sbrs	r18, 2
    2150:	02 c0       	rjmp	.+4      	; 0x2156 <putval+0x12>
    2152:	73 83       	std	Z+3, r23	; 0x03
    2154:	62 83       	std	Z+2, r22	; 0x02
    2156:	51 83       	std	Z+1, r21	; 0x01
    2158:	40 83       	st	Z, r20
    215a:	08 95       	ret

0000215c <mulacc>:
    215c:	44 fd       	sbrc	r20, 4
    215e:	17 c0       	rjmp	.+46     	; 0x218e <mulacc+0x32>
    2160:	46 fd       	sbrc	r20, 6
    2162:	17 c0       	rjmp	.+46     	; 0x2192 <mulacc+0x36>
    2164:	ab 01       	movw	r20, r22
    2166:	bc 01       	movw	r22, r24
    2168:	da 01       	movw	r26, r20
    216a:	fb 01       	movw	r30, r22
    216c:	aa 0f       	add	r26, r26
    216e:	bb 1f       	adc	r27, r27
    2170:	ee 1f       	adc	r30, r30
    2172:	ff 1f       	adc	r31, r31
    2174:	10 94       	com	r1
    2176:	d1 f7       	brne	.-12     	; 0x216c <mulacc+0x10>
    2178:	4a 0f       	add	r20, r26
    217a:	5b 1f       	adc	r21, r27
    217c:	6e 1f       	adc	r22, r30
    217e:	7f 1f       	adc	r23, r31
    2180:	cb 01       	movw	r24, r22
    2182:	ba 01       	movw	r22, r20
    2184:	66 0f       	add	r22, r22
    2186:	77 1f       	adc	r23, r23
    2188:	88 1f       	adc	r24, r24
    218a:	99 1f       	adc	r25, r25
    218c:	09 c0       	rjmp	.+18     	; 0x21a0 <mulacc+0x44>
    218e:	33 e0       	ldi	r19, 0x03	; 3
    2190:	01 c0       	rjmp	.+2      	; 0x2194 <mulacc+0x38>
    2192:	34 e0       	ldi	r19, 0x04	; 4
    2194:	66 0f       	add	r22, r22
    2196:	77 1f       	adc	r23, r23
    2198:	88 1f       	adc	r24, r24
    219a:	99 1f       	adc	r25, r25
    219c:	31 50       	subi	r19, 0x01	; 1
    219e:	d1 f7       	brne	.-12     	; 0x2194 <mulacc+0x38>
    21a0:	62 0f       	add	r22, r18
    21a2:	71 1d       	adc	r23, r1
    21a4:	81 1d       	adc	r24, r1
    21a6:	91 1d       	adc	r25, r1
    21a8:	08 95       	ret

000021aa <skip_spaces>:
    21aa:	0f 93       	push	r16
    21ac:	1f 93       	push	r17
    21ae:	cf 93       	push	r28
    21b0:	df 93       	push	r29
    21b2:	8c 01       	movw	r16, r24
    21b4:	c8 01       	movw	r24, r16
    21b6:	0e 94 c6 19 	call	0x338c	; 0x338c <fgetc>
    21ba:	ec 01       	movw	r28, r24
    21bc:	97 fd       	sbrc	r25, 7
    21be:	08 c0       	rjmp	.+16     	; 0x21d0 <skip_spaces+0x26>
    21c0:	0e 94 36 19 	call	0x326c	; 0x326c <isspace>
    21c4:	89 2b       	or	r24, r25
    21c6:	b1 f7       	brne	.-20     	; 0x21b4 <skip_spaces+0xa>
    21c8:	b8 01       	movw	r22, r16
    21ca:	ce 01       	movw	r24, r28
    21cc:	0e 94 9f 1a 	call	0x353e	; 0x353e <ungetc>
    21d0:	ce 01       	movw	r24, r28
    21d2:	df 91       	pop	r29
    21d4:	cf 91       	pop	r28
    21d6:	1f 91       	pop	r17
    21d8:	0f 91       	pop	r16
    21da:	08 95       	ret

000021dc <conv_int>:
    21dc:	a0 e0       	ldi	r26, 0x00	; 0
    21de:	b0 e0       	ldi	r27, 0x00	; 0
    21e0:	e4 ef       	ldi	r30, 0xF4	; 244
    21e2:	f0 e1       	ldi	r31, 0x10	; 16
    21e4:	0c 94 33 18 	jmp	0x3066	; 0x3066 <__prologue_saves__+0xc>
    21e8:	7c 01       	movw	r14, r24
    21ea:	8b 01       	movw	r16, r22
    21ec:	6a 01       	movw	r12, r20
    21ee:	d2 2f       	mov	r29, r18
    21f0:	0e 94 c6 19 	call	0x338c	; 0x338c <fgetc>
    21f4:	9c 01       	movw	r18, r24
    21f6:	33 27       	eor	r19, r19
    21f8:	2b 32       	cpi	r18, 0x2B	; 43
    21fa:	31 05       	cpc	r19, r1
    21fc:	21 f0       	breq	.+8      	; 0x2206 <conv_int+0x2a>
    21fe:	2d 32       	cpi	r18, 0x2D	; 45
    2200:	31 05       	cpc	r19, r1
    2202:	59 f4       	brne	.+22     	; 0x221a <conv_int+0x3e>
    2204:	d0 68       	ori	r29, 0x80	; 128
    2206:	01 50       	subi	r16, 0x01	; 1
    2208:	11 09       	sbc	r17, r1
    220a:	11 f4       	brne	.+4      	; 0x2210 <conv_int+0x34>
    220c:	80 e0       	ldi	r24, 0x00	; 0
    220e:	6b c0       	rjmp	.+214    	; 0x22e6 <conv_int+0x10a>
    2210:	c7 01       	movw	r24, r14
    2212:	0e 94 c6 19 	call	0x338c	; 0x338c <fgetc>
    2216:	97 fd       	sbrc	r25, 7
    2218:	f9 cf       	rjmp	.-14     	; 0x220c <conv_int+0x30>
    221a:	cd 2f       	mov	r28, r29
    221c:	cd 7f       	andi	r28, 0xFD	; 253
    221e:	2d 2f       	mov	r18, r29
    2220:	20 73       	andi	r18, 0x30	; 48
    2222:	19 f5       	brne	.+70     	; 0x226a <conv_int+0x8e>
    2224:	80 33       	cpi	r24, 0x30	; 48
    2226:	09 f5       	brne	.+66     	; 0x226a <conv_int+0x8e>
    2228:	58 01       	movw	r10, r16
    222a:	81 e0       	ldi	r24, 0x01	; 1
    222c:	a8 1a       	sub	r10, r24
    222e:	b1 08       	sbc	r11, r1
    2230:	09 f4       	brne	.+2      	; 0x2234 <conv_int+0x58>
    2232:	45 c0       	rjmp	.+138    	; 0x22be <conv_int+0xe2>
    2234:	c7 01       	movw	r24, r14
    2236:	0e 94 c6 19 	call	0x338c	; 0x338c <fgetc>
    223a:	97 fd       	sbrc	r25, 7
    223c:	40 c0       	rjmp	.+128    	; 0x22be <conv_int+0xe2>
    223e:	9c 01       	movw	r18, r24
    2240:	2f 7d       	andi	r18, 0xDF	; 223
    2242:	33 27       	eor	r19, r19
    2244:	28 35       	cpi	r18, 0x58	; 88
    2246:	31 05       	cpc	r19, r1
    2248:	51 f4       	brne	.+20     	; 0x225e <conv_int+0x82>
    224a:	c2 64       	ori	r28, 0x42	; 66
    224c:	02 50       	subi	r16, 0x02	; 2
    224e:	11 09       	sbc	r17, r1
    2250:	b1 f1       	breq	.+108    	; 0x22be <conv_int+0xe2>
    2252:	c7 01       	movw	r24, r14
    2254:	0e 94 c6 19 	call	0x338c	; 0x338c <fgetc>
    2258:	97 ff       	sbrs	r25, 7
    225a:	07 c0       	rjmp	.+14     	; 0x226a <conv_int+0x8e>
    225c:	30 c0       	rjmp	.+96     	; 0x22be <conv_int+0xe2>
    225e:	d6 ff       	sbrs	r29, 6
    2260:	02 c0       	rjmp	.+4      	; 0x2266 <conv_int+0x8a>
    2262:	c2 60       	ori	r28, 0x02	; 2
    2264:	01 c0       	rjmp	.+2      	; 0x2268 <conv_int+0x8c>
    2266:	c2 61       	ori	r28, 0x12	; 18
    2268:	85 01       	movw	r16, r10
    226a:	81 2c       	mov	r8, r1
    226c:	91 2c       	mov	r9, r1
    226e:	54 01       	movw	r10, r8
    2270:	20 ed       	ldi	r18, 0xD0	; 208
    2272:	28 0f       	add	r18, r24
    2274:	28 30       	cpi	r18, 0x08	; 8
    2276:	80 f0       	brcs	.+32     	; 0x2298 <conv_int+0xbc>
    2278:	c4 ff       	sbrs	r28, 4
    227a:	04 c0       	rjmp	.+8      	; 0x2284 <conv_int+0xa8>
    227c:	b7 01       	movw	r22, r14
    227e:	0e 94 9f 1a 	call	0x353e	; 0x353e <ungetc>
    2282:	1a c0       	rjmp	.+52     	; 0x22b8 <conv_int+0xdc>
    2284:	2a 30       	cpi	r18, 0x0A	; 10
    2286:	40 f0       	brcs	.+16     	; 0x2298 <conv_int+0xbc>
    2288:	c6 ff       	sbrs	r28, 6
    228a:	f8 cf       	rjmp	.-16     	; 0x227c <conv_int+0xa0>
    228c:	2f 7d       	andi	r18, 0xDF	; 223
    228e:	3f ee       	ldi	r19, 0xEF	; 239
    2290:	32 0f       	add	r19, r18
    2292:	36 30       	cpi	r19, 0x06	; 6
    2294:	98 f7       	brcc	.-26     	; 0x227c <conv_int+0xa0>
    2296:	27 50       	subi	r18, 0x07	; 7
    2298:	4c 2f       	mov	r20, r28
    229a:	c5 01       	movw	r24, r10
    229c:	b4 01       	movw	r22, r8
    229e:	0e 94 ae 10 	call	0x215c	; 0x215c <mulacc>
    22a2:	4b 01       	movw	r8, r22
    22a4:	5c 01       	movw	r10, r24
    22a6:	c2 60       	ori	r28, 0x02	; 2
    22a8:	01 50       	subi	r16, 0x01	; 1
    22aa:	11 09       	sbc	r17, r1
    22ac:	59 f0       	breq	.+22     	; 0x22c4 <conv_int+0xe8>
    22ae:	c7 01       	movw	r24, r14
    22b0:	0e 94 c6 19 	call	0x338c	; 0x338c <fgetc>
    22b4:	97 ff       	sbrs	r25, 7
    22b6:	dc cf       	rjmp	.-72     	; 0x2270 <conv_int+0x94>
    22b8:	c1 fd       	sbrc	r28, 1
    22ba:	04 c0       	rjmp	.+8      	; 0x22c4 <conv_int+0xe8>
    22bc:	a7 cf       	rjmp	.-178    	; 0x220c <conv_int+0x30>
    22be:	81 2c       	mov	r8, r1
    22c0:	91 2c       	mov	r9, r1
    22c2:	54 01       	movw	r10, r8
    22c4:	c7 ff       	sbrs	r28, 7
    22c6:	08 c0       	rjmp	.+16     	; 0x22d8 <conv_int+0xfc>
    22c8:	b0 94       	com	r11
    22ca:	a0 94       	com	r10
    22cc:	90 94       	com	r9
    22ce:	80 94       	com	r8
    22d0:	81 1c       	adc	r8, r1
    22d2:	91 1c       	adc	r9, r1
    22d4:	a1 1c       	adc	r10, r1
    22d6:	b1 1c       	adc	r11, r1
    22d8:	2c 2f       	mov	r18, r28
    22da:	b5 01       	movw	r22, r10
    22dc:	a4 01       	movw	r20, r8
    22de:	c6 01       	movw	r24, r12
    22e0:	0e 94 a2 10 	call	0x2144	; 0x2144 <putval>
    22e4:	81 e0       	ldi	r24, 0x01	; 1
    22e6:	cd b7       	in	r28, 0x3d	; 61
    22e8:	de b7       	in	r29, 0x3e	; 62
    22ea:	ec e0       	ldi	r30, 0x0C	; 12
    22ec:	0c 94 4c 18 	jmp	0x3098	; 0x3098 <__epilogue_restores__+0xc>

000022f0 <conv_brk>:
    22f0:	a0 e2       	ldi	r26, 0x20	; 32
    22f2:	b0 e0       	ldi	r27, 0x00	; 0
    22f4:	ee e7       	ldi	r30, 0x7E	; 126
    22f6:	f1 e1       	ldi	r31, 0x11	; 17
    22f8:	0c 94 2f 18 	jmp	0x305e	; 0x305e <__prologue_saves__+0x4>
    22fc:	5c 01       	movw	r10, r24
    22fe:	4b 01       	movw	r8, r22
    2300:	7a 01       	movw	r14, r20
    2302:	8e 01       	movw	r16, r28
    2304:	0f 5f       	subi	r16, 0xFF	; 255
    2306:	1f 4f       	sbci	r17, 0xFF	; 255
    2308:	68 01       	movw	r12, r16
    230a:	80 e2       	ldi	r24, 0x20	; 32
    230c:	f8 01       	movw	r30, r16
    230e:	11 92       	st	Z+, r1
    2310:	8a 95       	dec	r24
    2312:	e9 f7       	brne	.-6      	; 0x230e <conv_brk+0x1e>
    2314:	f5 01       	movw	r30, r10
    2316:	53 80       	ldd	r5, Z+3	; 0x03
    2318:	40 e0       	ldi	r20, 0x00	; 0
    231a:	50 e0       	ldi	r21, 0x00	; 0
    231c:	61 2c       	mov	r6, r1
    231e:	90 e0       	ldi	r25, 0x00	; 0
    2320:	71 2c       	mov	r7, r1
    2322:	a1 e0       	ldi	r26, 0x01	; 1
    2324:	b0 e0       	ldi	r27, 0x00	; 0
    2326:	f9 01       	movw	r30, r18
    2328:	53 fc       	sbrc	r5, 3
    232a:	85 91       	lpm	r24, Z+
    232c:	53 fe       	sbrs	r5, 3
    232e:	81 91       	ld	r24, Z+
    2330:	8f 01       	movw	r16, r30
    2332:	48 2e       	mov	r4, r24
    2334:	9f 01       	movw	r18, r30
    2336:	81 11       	cpse	r24, r1
    2338:	03 c0       	rjmp	.+6      	; 0x2340 <conv_brk+0x50>
    233a:	80 e0       	ldi	r24, 0x00	; 0
    233c:	90 e0       	ldi	r25, 0x00	; 0
    233e:	96 c0       	rjmp	.+300    	; 0x246c <conv_brk+0x17c>
    2340:	8e 35       	cpi	r24, 0x5E	; 94
    2342:	19 f4       	brne	.+6      	; 0x234a <conv_brk+0x5a>
    2344:	41 15       	cp	r20, r1
    2346:	51 05       	cpc	r21, r1
    2348:	51 f1       	breq	.+84     	; 0x239e <conv_brk+0xae>
    234a:	67 2d       	mov	r22, r7
    234c:	70 e0       	ldi	r23, 0x00	; 0
    234e:	64 17       	cp	r22, r20
    2350:	75 07       	cpc	r23, r21
    2352:	3c f4       	brge	.+14     	; 0x2362 <conv_brk+0x72>
    2354:	8d 35       	cpi	r24, 0x5D	; 93
    2356:	61 f1       	breq	.+88     	; 0x23b0 <conv_brk+0xc0>
    2358:	8d 32       	cpi	r24, 0x2D	; 45
    235a:	19 f4       	brne	.+6      	; 0x2362 <conv_brk+0x72>
    235c:	99 23       	and	r25, r25
    235e:	11 f1       	breq	.+68     	; 0x23a4 <conv_brk+0xb4>
    2360:	03 c0       	rjmp	.+6      	; 0x2368 <conv_brk+0x78>
    2362:	99 23       	and	r25, r25
    2364:	09 f4       	brne	.+2      	; 0x2368 <conv_brk+0x78>
    2366:	6d c0       	rjmp	.+218    	; 0x2442 <conv_brk+0x152>
    2368:	84 2d       	mov	r24, r4
    236a:	86 95       	lsr	r24
    236c:	86 95       	lsr	r24
    236e:	86 95       	lsr	r24
    2370:	f6 01       	movw	r30, r12
    2372:	e8 0f       	add	r30, r24
    2374:	f1 1d       	adc	r31, r1
    2376:	84 2d       	mov	r24, r4
    2378:	87 70       	andi	r24, 0x07	; 7
    237a:	8d 01       	movw	r16, r26
    237c:	02 c0       	rjmp	.+4      	; 0x2382 <conv_brk+0x92>
    237e:	00 0f       	add	r16, r16
    2380:	11 1f       	adc	r17, r17
    2382:	8a 95       	dec	r24
    2384:	e2 f7       	brpl	.-8      	; 0x237e <conv_brk+0x8e>
    2386:	c8 01       	movw	r24, r16
    2388:	90 81       	ld	r25, Z
    238a:	89 2b       	or	r24, r25
    238c:	80 83       	st	Z, r24
    238e:	64 14       	cp	r6, r4
    2390:	59 f0       	breq	.+22     	; 0x23a8 <conv_brk+0xb8>
    2392:	46 14       	cp	r4, r6
    2394:	10 f4       	brcc	.+4      	; 0x239a <conv_brk+0xaa>
    2396:	43 94       	inc	r4
    2398:	e7 cf       	rjmp	.-50     	; 0x2368 <conv_brk+0x78>
    239a:	4a 94       	dec	r4
    239c:	e5 cf       	rjmp	.-54     	; 0x2368 <conv_brk+0x78>
    239e:	77 24       	eor	r7, r7
    23a0:	73 94       	inc	r7
    23a2:	03 c0       	rjmp	.+6      	; 0x23aa <conv_brk+0xba>
    23a4:	91 e0       	ldi	r25, 0x01	; 1
    23a6:	01 c0       	rjmp	.+2      	; 0x23aa <conv_brk+0xba>
    23a8:	90 e0       	ldi	r25, 0x00	; 0
    23aa:	4f 5f       	subi	r20, 0xFF	; 255
    23ac:	5f 4f       	sbci	r21, 0xFF	; 255
    23ae:	bb cf       	rjmp	.-138    	; 0x2326 <conv_brk+0x36>
    23b0:	99 23       	and	r25, r25
    23b2:	19 f0       	breq	.+6      	; 0x23ba <conv_brk+0xca>
    23b4:	8e 81       	ldd	r24, Y+6	; 0x06
    23b6:	80 62       	ori	r24, 0x20	; 32
    23b8:	8e 83       	std	Y+6, r24	; 0x06
    23ba:	71 10       	cpse	r7, r1
    23bc:	03 c0       	rjmp	.+6      	; 0x23c4 <conv_brk+0xd4>
    23be:	77 24       	eor	r7, r7
    23c0:	73 94       	inc	r7
    23c2:	19 c0       	rjmp	.+50     	; 0x23f6 <conv_brk+0x106>
    23c4:	f6 01       	movw	r30, r12
    23c6:	9e 01       	movw	r18, r28
    23c8:	2f 5d       	subi	r18, 0xDF	; 223
    23ca:	3f 4f       	sbci	r19, 0xFF	; 255
    23cc:	80 81       	ld	r24, Z
    23ce:	80 95       	com	r24
    23d0:	81 93       	st	Z+, r24
    23d2:	2e 17       	cp	r18, r30
    23d4:	3f 07       	cpc	r19, r31
    23d6:	d1 f7       	brne	.-12     	; 0x23cc <conv_brk+0xdc>
    23d8:	f2 cf       	rjmp	.-28     	; 0x23be <conv_brk+0xce>
    23da:	e1 14       	cp	r14, r1
    23dc:	f1 04       	cpc	r15, r1
    23de:	31 f0       	breq	.+12     	; 0x23ec <conv_brk+0xfc>
    23e0:	f7 01       	movw	r30, r14
    23e2:	80 83       	st	Z, r24
    23e4:	b7 01       	movw	r22, r14
    23e6:	6f 5f       	subi	r22, 0xFF	; 255
    23e8:	7f 4f       	sbci	r23, 0xFF	; 255
    23ea:	7b 01       	movw	r14, r22
    23ec:	71 e0       	ldi	r23, 0x01	; 1
    23ee:	87 1a       	sub	r8, r23
    23f0:	91 08       	sbc	r9, r1
    23f2:	71 2c       	mov	r7, r1
    23f4:	f9 f0       	breq	.+62     	; 0x2434 <conv_brk+0x144>
    23f6:	c5 01       	movw	r24, r10
    23f8:	0e 94 c6 19 	call	0x338c	; 0x338c <fgetc>
    23fc:	97 fd       	sbrc	r25, 7
    23fe:	18 c0       	rjmp	.+48     	; 0x2430 <conv_brk+0x140>
    2400:	fc 01       	movw	r30, r24
    2402:	ff 27       	eor	r31, r31
    2404:	23 e0       	ldi	r18, 0x03	; 3
    2406:	f5 95       	asr	r31
    2408:	e7 95       	ror	r30
    240a:	2a 95       	dec	r18
    240c:	e1 f7       	brne	.-8      	; 0x2406 <conv_brk+0x116>
    240e:	ec 0d       	add	r30, r12
    2410:	fd 1d       	adc	r31, r13
    2412:	20 81       	ld	r18, Z
    2414:	30 e0       	ldi	r19, 0x00	; 0
    2416:	ac 01       	movw	r20, r24
    2418:	47 70       	andi	r20, 0x07	; 7
    241a:	55 27       	eor	r21, r21
    241c:	02 c0       	rjmp	.+4      	; 0x2422 <conv_brk+0x132>
    241e:	35 95       	asr	r19
    2420:	27 95       	ror	r18
    2422:	4a 95       	dec	r20
    2424:	e2 f7       	brpl	.-8      	; 0x241e <conv_brk+0x12e>
    2426:	20 fd       	sbrc	r18, 0
    2428:	d8 cf       	rjmp	.-80     	; 0x23da <conv_brk+0xea>
    242a:	b5 01       	movw	r22, r10
    242c:	0e 94 9f 1a 	call	0x353e	; 0x353e <ungetc>
    2430:	71 10       	cpse	r7, r1
    2432:	83 cf       	rjmp	.-250    	; 0x233a <conv_brk+0x4a>
    2434:	e1 14       	cp	r14, r1
    2436:	f1 04       	cpc	r15, r1
    2438:	11 f0       	breq	.+4      	; 0x243e <conv_brk+0x14e>
    243a:	f7 01       	movw	r30, r14
    243c:	10 82       	st	Z, r1
    243e:	c8 01       	movw	r24, r16
    2440:	15 c0       	rjmp	.+42     	; 0x246c <conv_brk+0x17c>
    2442:	68 2f       	mov	r22, r24
    2444:	66 95       	lsr	r22
    2446:	66 95       	lsr	r22
    2448:	66 95       	lsr	r22
    244a:	f6 01       	movw	r30, r12
    244c:	e6 0f       	add	r30, r22
    244e:	f1 1d       	adc	r31, r1
    2450:	68 2f       	mov	r22, r24
    2452:	67 70       	andi	r22, 0x07	; 7
    2454:	8d 01       	movw	r16, r26
    2456:	02 c0       	rjmp	.+4      	; 0x245c <conv_brk+0x16c>
    2458:	00 0f       	add	r16, r16
    245a:	11 1f       	adc	r17, r17
    245c:	6a 95       	dec	r22
    245e:	e2 f7       	brpl	.-8      	; 0x2458 <conv_brk+0x168>
    2460:	b8 01       	movw	r22, r16
    2462:	70 81       	ld	r23, Z
    2464:	67 2b       	or	r22, r23
    2466:	60 83       	st	Z, r22
    2468:	68 2e       	mov	r6, r24
    246a:	9f cf       	rjmp	.-194    	; 0x23aa <conv_brk+0xba>
    246c:	a0 96       	adiw	r28, 0x20	; 32
    246e:	e0 e1       	ldi	r30, 0x10	; 16
    2470:	0c 94 48 18 	jmp	0x3090	; 0x3090 <__epilogue_restores__+0x4>

00002474 <conv_flt>:
    2474:	2f 92       	push	r2
    2476:	3f 92       	push	r3
    2478:	4f 92       	push	r4
    247a:	5f 92       	push	r5
    247c:	6f 92       	push	r6
    247e:	7f 92       	push	r7
    2480:	9f 92       	push	r9
    2482:	af 92       	push	r10
    2484:	bf 92       	push	r11
    2486:	cf 92       	push	r12
    2488:	df 92       	push	r13
    248a:	ef 92       	push	r14
    248c:	ff 92       	push	r15
    248e:	0f 93       	push	r16
    2490:	1f 93       	push	r17
    2492:	cf 93       	push	r28
    2494:	df 93       	push	r29
    2496:	6c 01       	movw	r12, r24
    2498:	8b 01       	movw	r16, r22
    249a:	1a 01       	movw	r2, r20
    249c:	0e 94 c6 19 	call	0x338c	; 0x338c <fgetc>
    24a0:	ec 01       	movw	r28, r24
    24a2:	99 27       	eor	r25, r25
    24a4:	8b 32       	cpi	r24, 0x2B	; 43
    24a6:	91 05       	cpc	r25, r1
    24a8:	29 f0       	breq	.+10     	; 0x24b4 <conv_flt+0x40>
    24aa:	8d 97       	sbiw	r24, 0x2d	; 45
    24ac:	81 f4       	brne	.+32     	; 0x24ce <conv_flt+0x5a>
    24ae:	30 e8       	ldi	r19, 0x80	; 128
    24b0:	93 2e       	mov	r9, r19
    24b2:	01 c0       	rjmp	.+2      	; 0x24b6 <conv_flt+0x42>
    24b4:	91 2c       	mov	r9, r1
    24b6:	01 50       	subi	r16, 0x01	; 1
    24b8:	11 09       	sbc	r17, r1
    24ba:	11 f4       	brne	.+4      	; 0x24c0 <conv_flt+0x4c>
    24bc:	80 e0       	ldi	r24, 0x00	; 0
    24be:	0c c1       	rjmp	.+536    	; 0x26d8 <conv_flt+0x264>
    24c0:	c6 01       	movw	r24, r12
    24c2:	0e 94 c6 19 	call	0x338c	; 0x338c <fgetc>
    24c6:	ec 01       	movw	r28, r24
    24c8:	97 ff       	sbrs	r25, 7
    24ca:	02 c0       	rjmp	.+4      	; 0x24d0 <conv_flt+0x5c>
    24cc:	f7 cf       	rjmp	.-18     	; 0x24bc <conv_flt+0x48>
    24ce:	91 2c       	mov	r9, r1
    24d0:	ce 01       	movw	r24, r28
    24d2:	0e 94 3f 19 	call	0x327e	; 0x327e <tolower>
    24d6:	89 36       	cpi	r24, 0x69	; 105
    24d8:	91 05       	cpc	r25, r1
    24da:	31 f0       	breq	.+12     	; 0x24e8 <conv_flt+0x74>
    24dc:	8e 36       	cpi	r24, 0x6E	; 110
    24de:	91 05       	cpc	r25, r1
    24e0:	99 f5       	brne	.+102    	; 0x2548 <conv_flt+0xd4>
    24e2:	cc e8       	ldi	r28, 0x8C	; 140
    24e4:	d1 e0       	ldi	r29, 0x01	; 1
    24e6:	02 c0       	rjmp	.+4      	; 0x24ec <conv_flt+0x78>
    24e8:	cf e8       	ldi	r28, 0x8F	; 143
    24ea:	d1 e0       	ldi	r29, 0x01	; 1
    24ec:	21 96       	adiw	r28, 0x01	; 1
    24ee:	fe 01       	movw	r30, r28
    24f0:	31 97       	sbiw	r30, 0x01	; 1
    24f2:	b4 90       	lpm	r11, Z
    24f4:	bb 20       	and	r11, r11
    24f6:	c9 f0       	breq	.+50     	; 0x252a <conv_flt+0xb6>
    24f8:	01 50       	subi	r16, 0x01	; 1
    24fa:	11 09       	sbc	r17, r1
    24fc:	91 f0       	breq	.+36     	; 0x2522 <conv_flt+0xae>
    24fe:	c6 01       	movw	r24, r12
    2500:	0e 94 c6 19 	call	0x338c	; 0x338c <fgetc>
    2504:	7c 01       	movw	r14, r24
    2506:	97 fd       	sbrc	r25, 7
    2508:	0c c0       	rjmp	.+24     	; 0x2522 <conv_flt+0xae>
    250a:	0e 94 3f 19 	call	0x327e	; 0x327e <tolower>
    250e:	99 27       	eor	r25, r25
    2510:	eb 2d       	mov	r30, r11
    2512:	f0 e0       	ldi	r31, 0x00	; 0
    2514:	8e 17       	cp	r24, r30
    2516:	9f 07       	cpc	r25, r31
    2518:	49 f3       	breq	.-46     	; 0x24ec <conv_flt+0x78>
    251a:	b6 01       	movw	r22, r12
    251c:	c7 01       	movw	r24, r14
    251e:	0e 94 9f 1a 	call	0x353e	; 0x353e <ungetc>
    2522:	c2 59       	subi	r28, 0x92	; 146
    2524:	d1 40       	sbci	r29, 0x01	; 1
    2526:	51 f6       	brne	.-108    	; 0x24bc <conv_flt+0x48>
    2528:	03 c0       	rjmp	.+6      	; 0x2530 <conv_flt+0xbc>
    252a:	cf 58       	subi	r28, 0x8F	; 143
    252c:	d1 40       	sbci	r29, 0x01	; 1
    252e:	29 f0       	breq	.+10     	; 0x253a <conv_flt+0xc6>
    2530:	80 e0       	ldi	r24, 0x00	; 0
    2532:	90 e0       	ldi	r25, 0x00	; 0
    2534:	a0 e8       	ldi	r26, 0x80	; 128
    2536:	bf e7       	ldi	r27, 0x7F	; 127
    2538:	04 c0       	rjmp	.+8      	; 0x2542 <conv_flt+0xce>
    253a:	80 e0       	ldi	r24, 0x00	; 0
    253c:	90 e0       	ldi	r25, 0x00	; 0
    253e:	a0 ec       	ldi	r26, 0xC0	; 192
    2540:	bf e7       	ldi	r27, 0x7F	; 127
    2542:	bc 01       	movw	r22, r24
    2544:	cd 01       	movw	r24, r26
    2546:	b8 c0       	rjmp	.+368    	; 0x26b8 <conv_flt+0x244>
    2548:	41 2c       	mov	r4, r1
    254a:	51 2c       	mov	r5, r1
    254c:	32 01       	movw	r6, r4
    254e:	e1 2c       	mov	r14, r1
    2550:	f1 2c       	mov	r15, r1
    2552:	2c 2f       	mov	r18, r28
    2554:	20 53       	subi	r18, 0x30	; 48
    2556:	2a 30       	cpi	r18, 0x0A	; 10
    2558:	10 f5       	brcc	.+68     	; 0x259e <conv_flt+0x12a>
    255a:	e9 2d       	mov	r30, r9
    255c:	e2 60       	ori	r30, 0x02	; 2
    255e:	be 2e       	mov	r11, r30
    2560:	89 2d       	mov	r24, r9
    2562:	88 70       	andi	r24, 0x08	; 8
    2564:	92 fe       	sbrs	r9, 2
    2566:	06 c0       	rjmp	.+12     	; 0x2574 <conv_flt+0x100>
    2568:	81 11       	cpse	r24, r1
    256a:	20 c0       	rjmp	.+64     	; 0x25ac <conv_flt+0x138>
    256c:	ff ef       	ldi	r31, 0xFF	; 255
    256e:	ef 1a       	sub	r14, r31
    2570:	ff 0a       	sbc	r15, r31
    2572:	1c c0       	rjmp	.+56     	; 0x25ac <conv_flt+0x138>
    2574:	88 23       	and	r24, r24
    2576:	19 f0       	breq	.+6      	; 0x257e <conv_flt+0x10a>
    2578:	81 e0       	ldi	r24, 0x01	; 1
    257a:	e8 1a       	sub	r14, r24
    257c:	f1 08       	sbc	r15, r1
    257e:	40 e2       	ldi	r20, 0x20	; 32
    2580:	c3 01       	movw	r24, r6
    2582:	b2 01       	movw	r22, r4
    2584:	0e 94 ae 10 	call	0x215c	; 0x215c <mulacc>
    2588:	2b 01       	movw	r4, r22
    258a:	3c 01       	movw	r6, r24
    258c:	68 39       	cpi	r22, 0x98	; 152
    258e:	79 49       	sbci	r23, 0x99	; 153
    2590:	89 49       	sbci	r24, 0x99	; 153
    2592:	99 41       	sbci	r25, 0x19	; 25
    2594:	58 f0       	brcs	.+22     	; 0x25ac <conv_flt+0x138>
    2596:	f9 2d       	mov	r31, r9
    2598:	f6 60       	ori	r31, 0x06	; 6
    259a:	bf 2e       	mov	r11, r31
    259c:	07 c0       	rjmp	.+14     	; 0x25ac <conv_flt+0x138>
    259e:	2e 3f       	cpi	r18, 0xFE	; 254
    25a0:	89 f4       	brne	.+34     	; 0x25c4 <conv_flt+0x150>
    25a2:	93 fc       	sbrc	r9, 3
    25a4:	0f c0       	rjmp	.+30     	; 0x25c4 <conv_flt+0x150>
    25a6:	29 2d       	mov	r18, r9
    25a8:	28 60       	ori	r18, 0x08	; 8
    25aa:	b2 2e       	mov	r11, r18
    25ac:	01 50       	subi	r16, 0x01	; 1
    25ae:	11 09       	sbc	r17, r1
    25b0:	41 f0       	breq	.+16     	; 0x25c2 <conv_flt+0x14e>
    25b2:	c6 01       	movw	r24, r12
    25b4:	0e 94 c6 19 	call	0x338c	; 0x338c <fgetc>
    25b8:	ec 01       	movw	r28, r24
    25ba:	9b 2c       	mov	r9, r11
    25bc:	97 ff       	sbrs	r25, 7
    25be:	c9 cf       	rjmp	.-110    	; 0x2552 <conv_flt+0xde>
    25c0:	01 c0       	rjmp	.+2      	; 0x25c4 <conv_flt+0x150>
    25c2:	9b 2c       	mov	r9, r11
    25c4:	91 fe       	sbrs	r9, 1
    25c6:	7a cf       	rjmp	.-268    	; 0x24bc <conv_flt+0x48>
    25c8:	ce 01       	movw	r24, r28
    25ca:	8f 7d       	andi	r24, 0xDF	; 223
    25cc:	99 27       	eor	r25, r25
    25ce:	85 34       	cpi	r24, 0x45	; 69
    25d0:	91 05       	cpc	r25, r1
    25d2:	09 f0       	breq	.+2      	; 0x25d6 <conv_flt+0x162>
    25d4:	42 c0       	rjmp	.+132    	; 0x265a <conv_flt+0x1e6>
    25d6:	58 01       	movw	r10, r16
    25d8:	81 e0       	ldi	r24, 0x01	; 1
    25da:	a8 1a       	sub	r10, r24
    25dc:	b1 08       	sbc	r11, r1
    25de:	09 f4       	brne	.+2      	; 0x25e2 <conv_flt+0x16e>
    25e0:	6d cf       	rjmp	.-294    	; 0x24bc <conv_flt+0x48>
    25e2:	c6 01       	movw	r24, r12
    25e4:	0e 94 c6 19 	call	0x338c	; 0x338c <fgetc>
    25e8:	ec 01       	movw	r28, r24
    25ea:	97 fd       	sbrc	r25, 7
    25ec:	67 cf       	rjmp	.-306    	; 0x24bc <conv_flt+0x48>
    25ee:	99 27       	eor	r25, r25
    25f0:	8b 32       	cpi	r24, 0x2B	; 43
    25f2:	91 05       	cpc	r25, r1
    25f4:	29 f0       	breq	.+10     	; 0x2600 <conv_flt+0x18c>
    25f6:	8d 97       	sbiw	r24, 0x2d	; 45
    25f8:	69 f4       	brne	.+26     	; 0x2614 <conv_flt+0x1a0>
    25fa:	e9 2d       	mov	r30, r9
    25fc:	e0 61       	ori	r30, 0x10	; 16
    25fe:	9e 2e       	mov	r9, r30
    2600:	58 01       	movw	r10, r16
    2602:	f2 e0       	ldi	r31, 0x02	; 2
    2604:	af 1a       	sub	r10, r31
    2606:	b1 08       	sbc	r11, r1
    2608:	09 f4       	brne	.+2      	; 0x260c <conv_flt+0x198>
    260a:	58 cf       	rjmp	.-336    	; 0x24bc <conv_flt+0x48>
    260c:	c6 01       	movw	r24, r12
    260e:	0e 94 c6 19 	call	0x338c	; 0x338c <fgetc>
    2612:	ec 01       	movw	r28, r24
    2614:	ce 01       	movw	r24, r28
    2616:	c0 97       	sbiw	r24, 0x30	; 48
    2618:	0a 97       	sbiw	r24, 0x0a	; 10
    261a:	08 f0       	brcs	.+2      	; 0x261e <conv_flt+0x1aa>
    261c:	4f cf       	rjmp	.-354    	; 0x24bc <conv_flt+0x48>
    261e:	85 01       	movw	r16, r10
    2620:	a1 2c       	mov	r10, r1
    2622:	b1 2c       	mov	r11, r1
    2624:	b5 01       	movw	r22, r10
    2626:	bb 0c       	add	r11, r11
    2628:	88 0b       	sbc	r24, r24
    262a:	99 0b       	sbc	r25, r25
    262c:	2c 2f       	mov	r18, r28
    262e:	20 53       	subi	r18, 0x30	; 48
    2630:	40 e2       	ldi	r20, 0x20	; 32
    2632:	0e 94 ae 10 	call	0x215c	; 0x215c <mulacc>
    2636:	5b 01       	movw	r10, r22
    2638:	01 50       	subi	r16, 0x01	; 1
    263a:	11 09       	sbc	r17, r1
    263c:	39 f0       	breq	.+14     	; 0x264c <conv_flt+0x1d8>
    263e:	c6 01       	movw	r24, r12
    2640:	0e 94 c6 19 	call	0x338c	; 0x338c <fgetc>
    2644:	ec 01       	movw	r28, r24
    2646:	c0 97       	sbiw	r24, 0x30	; 48
    2648:	0a 97       	sbiw	r24, 0x0a	; 10
    264a:	60 f3       	brcs	.-40     	; 0x2624 <conv_flt+0x1b0>
    264c:	94 fe       	sbrs	r9, 4
    264e:	03 c0       	rjmp	.+6      	; 0x2656 <conv_flt+0x1e2>
    2650:	b1 94       	neg	r11
    2652:	a1 94       	neg	r10
    2654:	b1 08       	sbc	r11, r1
    2656:	ea 0c       	add	r14, r10
    2658:	fb 1c       	adc	r15, r11
    265a:	01 2b       	or	r16, r17
    265c:	31 f0       	breq	.+12     	; 0x266a <conv_flt+0x1f6>
    265e:	d7 fd       	sbrc	r29, 7
    2660:	04 c0       	rjmp	.+8      	; 0x266a <conv_flt+0x1f6>
    2662:	b6 01       	movw	r22, r12
    2664:	ce 01       	movw	r24, r28
    2666:	0e 94 9f 1a 	call	0x353e	; 0x353e <ungetc>
    266a:	c3 01       	movw	r24, r6
    266c:	b2 01       	movw	r22, r4
    266e:	0e 94 7e 0f 	call	0x1efc	; 0x1efc <__floatunsisf>
    2672:	f7 fe       	sbrs	r15, 7
    2674:	06 c0       	rjmp	.+12     	; 0x2682 <conv_flt+0x20e>
    2676:	f1 94       	neg	r15
    2678:	e1 94       	neg	r14
    267a:	f1 08       	sbc	r15, r1
    267c:	cb ea       	ldi	r28, 0xAB	; 171
    267e:	d1 e0       	ldi	r29, 0x01	; 1
    2680:	02 c0       	rjmp	.+4      	; 0x2686 <conv_flt+0x212>
    2682:	c3 ec       	ldi	r28, 0xC3	; 195
    2684:	d1 e0       	ldi	r29, 0x01	; 1
    2686:	6e 01       	movw	r12, r28
    2688:	28 e1       	ldi	r18, 0x18	; 24
    268a:	c2 1a       	sub	r12, r18
    268c:	d1 08       	sbc	r13, r1
    268e:	00 e2       	ldi	r16, 0x20	; 32
    2690:	10 e0       	ldi	r17, 0x00	; 0
    2692:	e0 16       	cp	r14, r16
    2694:	f1 06       	cpc	r15, r17
    2696:	50 f0       	brcs	.+20     	; 0x26ac <conv_flt+0x238>
    2698:	fe 01       	movw	r30, r28
    269a:	25 91       	lpm	r18, Z+
    269c:	35 91       	lpm	r19, Z+
    269e:	45 91       	lpm	r20, Z+
    26a0:	54 91       	lpm	r21, Z
    26a2:	0e 94 35 10 	call	0x206a	; 0x206a <__mulsf3>
    26a6:	e0 1a       	sub	r14, r16
    26a8:	f1 0a       	sbc	r15, r17
    26aa:	f3 cf       	rjmp	.-26     	; 0x2692 <conv_flt+0x21e>
    26ac:	24 97       	sbiw	r28, 0x04	; 4
    26ae:	16 95       	lsr	r17
    26b0:	07 95       	ror	r16
    26b2:	cc 16       	cp	r12, r28
    26b4:	dd 06       	cpc	r13, r29
    26b6:	69 f7       	brne	.-38     	; 0x2692 <conv_flt+0x21e>
    26b8:	97 fe       	sbrs	r9, 7
    26ba:	05 c0       	rjmp	.+10     	; 0x26c6 <conv_flt+0x252>
    26bc:	dc 01       	movw	r26, r24
    26be:	cb 01       	movw	r24, r22
    26c0:	b0 58       	subi	r27, 0x80	; 128
    26c2:	bc 01       	movw	r22, r24
    26c4:	cd 01       	movw	r24, r26
    26c6:	21 14       	cp	r2, r1
    26c8:	31 04       	cpc	r3, r1
    26ca:	29 f0       	breq	.+10     	; 0x26d6 <conv_flt+0x262>
    26cc:	f1 01       	movw	r30, r2
    26ce:	60 83       	st	Z, r22
    26d0:	71 83       	std	Z+1, r23	; 0x01
    26d2:	82 83       	std	Z+2, r24	; 0x02
    26d4:	93 83       	std	Z+3, r25	; 0x03
    26d6:	81 e0       	ldi	r24, 0x01	; 1
    26d8:	df 91       	pop	r29
    26da:	cf 91       	pop	r28
    26dc:	1f 91       	pop	r17
    26de:	0f 91       	pop	r16
    26e0:	ff 90       	pop	r15
    26e2:	ef 90       	pop	r14
    26e4:	df 90       	pop	r13
    26e6:	cf 90       	pop	r12
    26e8:	bf 90       	pop	r11
    26ea:	af 90       	pop	r10
    26ec:	9f 90       	pop	r9
    26ee:	7f 90       	pop	r7
    26f0:	6f 90       	pop	r6
    26f2:	5f 90       	pop	r5
    26f4:	4f 90       	pop	r4
    26f6:	3f 90       	pop	r3
    26f8:	2f 90       	pop	r2
    26fa:	08 95       	ret

000026fc <vfscanf>:
    26fc:	a0 e0       	ldi	r26, 0x00	; 0
    26fe:	b0 e0       	ldi	r27, 0x00	; 0
    2700:	e4 e8       	ldi	r30, 0x84	; 132
    2702:	f3 e1       	ldi	r31, 0x13	; 19
    2704:	0c 94 31 18 	jmp	0x3062	; 0x3062 <__prologue_saves__+0x8>
    2708:	5c 01       	movw	r10, r24
    270a:	eb 01       	movw	r28, r22
    270c:	4a 01       	movw	r8, r20
    270e:	fc 01       	movw	r30, r24
    2710:	16 82       	std	Z+6, r1	; 0x06
    2712:	17 82       	std	Z+7, r1	; 0x07
    2714:	61 2c       	mov	r6, r1
    2716:	f5 01       	movw	r30, r10
    2718:	03 81       	ldd	r16, Z+3	; 0x03
    271a:	fe 01       	movw	r30, r28
    271c:	03 fd       	sbrc	r16, 3
    271e:	85 91       	lpm	r24, Z+
    2720:	03 ff       	sbrs	r16, 3
    2722:	81 91       	ld	r24, Z+
    2724:	18 2f       	mov	r17, r24
    2726:	ef 01       	movw	r28, r30
    2728:	88 23       	and	r24, r24
    272a:	09 f4       	brne	.+2      	; 0x272e <vfscanf+0x32>
    272c:	0f c1       	rjmp	.+542    	; 0x294c <vfscanf+0x250>
    272e:	90 e0       	ldi	r25, 0x00	; 0
    2730:	0e 94 36 19 	call	0x326c	; 0x326c <isspace>
    2734:	89 2b       	or	r24, r25
    2736:	21 f0       	breq	.+8      	; 0x2740 <vfscanf+0x44>
    2738:	c5 01       	movw	r24, r10
    273a:	0e 94 d5 10 	call	0x21aa	; 0x21aa <skip_spaces>
    273e:	eb cf       	rjmp	.-42     	; 0x2716 <vfscanf+0x1a>
    2740:	15 32       	cpi	r17, 0x25	; 37
    2742:	41 f4       	brne	.+16     	; 0x2754 <vfscanf+0x58>
    2744:	fe 01       	movw	r30, r28
    2746:	03 fd       	sbrc	r16, 3
    2748:	15 91       	lpm	r17, Z+
    274a:	03 ff       	sbrs	r16, 3
    274c:	11 91       	ld	r17, Z+
    274e:	ef 01       	movw	r28, r30
    2750:	15 32       	cpi	r17, 0x25	; 37
    2752:	81 f4       	brne	.+32     	; 0x2774 <vfscanf+0x78>
    2754:	c5 01       	movw	r24, r10
    2756:	0e 94 c6 19 	call	0x338c	; 0x338c <fgetc>
    275a:	97 fd       	sbrc	r25, 7
    275c:	f5 c0       	rjmp	.+490    	; 0x2948 <vfscanf+0x24c>
    275e:	41 2f       	mov	r20, r17
    2760:	50 e0       	ldi	r21, 0x00	; 0
    2762:	9c 01       	movw	r18, r24
    2764:	33 27       	eor	r19, r19
    2766:	24 17       	cp	r18, r20
    2768:	35 07       	cpc	r19, r21
    276a:	a9 f2       	breq	.-86     	; 0x2716 <vfscanf+0x1a>
    276c:	b5 01       	movw	r22, r10
    276e:	0e 94 9f 1a 	call	0x353e	; 0x353e <ungetc>
    2772:	ec c0       	rjmp	.+472    	; 0x294c <vfscanf+0x250>
    2774:	1a 32       	cpi	r17, 0x2A	; 42
    2776:	41 f4       	brne	.+16     	; 0x2788 <vfscanf+0x8c>
    2778:	03 fd       	sbrc	r16, 3
    277a:	15 91       	lpm	r17, Z+
    277c:	03 ff       	sbrs	r16, 3
    277e:	11 91       	ld	r17, Z+
    2780:	ef 01       	movw	r28, r30
    2782:	77 24       	eor	r7, r7
    2784:	73 94       	inc	r7
    2786:	01 c0       	rjmp	.+2      	; 0x278a <vfscanf+0x8e>
    2788:	71 2c       	mov	r7, r1
    278a:	e1 2c       	mov	r14, r1
    278c:	f1 2c       	mov	r15, r1
    278e:	20 ed       	ldi	r18, 0xD0	; 208
    2790:	21 0f       	add	r18, r17
    2792:	2a 30       	cpi	r18, 0x0A	; 10
    2794:	88 f4       	brcc	.+34     	; 0x27b8 <vfscanf+0xbc>
    2796:	f7 2d       	mov	r31, r7
    2798:	f2 60       	ori	r31, 0x02	; 2
    279a:	7f 2e       	mov	r7, r31
    279c:	b7 01       	movw	r22, r14
    279e:	80 e0       	ldi	r24, 0x00	; 0
    27a0:	90 e0       	ldi	r25, 0x00	; 0
    27a2:	40 e2       	ldi	r20, 0x20	; 32
    27a4:	0e 94 ae 10 	call	0x215c	; 0x215c <mulacc>
    27a8:	7b 01       	movw	r14, r22
    27aa:	fe 01       	movw	r30, r28
    27ac:	03 fd       	sbrc	r16, 3
    27ae:	15 91       	lpm	r17, Z+
    27b0:	03 ff       	sbrs	r16, 3
    27b2:	11 91       	ld	r17, Z+
    27b4:	ef 01       	movw	r28, r30
    27b6:	eb cf       	rjmp	.-42     	; 0x278e <vfscanf+0x92>
    27b8:	71 fe       	sbrs	r7, 1
    27ba:	04 c0       	rjmp	.+8      	; 0x27c4 <vfscanf+0xc8>
    27bc:	e1 14       	cp	r14, r1
    27be:	f1 04       	cpc	r15, r1
    27c0:	21 f4       	brne	.+8      	; 0x27ca <vfscanf+0xce>
    27c2:	c4 c0       	rjmp	.+392    	; 0x294c <vfscanf+0x250>
    27c4:	ee 24       	eor	r14, r14
    27c6:	ea 94       	dec	r14
    27c8:	fe 2c       	mov	r15, r14
    27ca:	18 36       	cpi	r17, 0x68	; 104
    27cc:	19 f0       	breq	.+6      	; 0x27d4 <vfscanf+0xd8>
    27ce:	1c 36       	cpi	r17, 0x6C	; 108
    27d0:	61 f0       	breq	.+24     	; 0x27ea <vfscanf+0xee>
    27d2:	14 c0       	rjmp	.+40     	; 0x27fc <vfscanf+0x100>
    27d4:	fe 01       	movw	r30, r28
    27d6:	03 fd       	sbrc	r16, 3
    27d8:	15 91       	lpm	r17, Z+
    27da:	03 ff       	sbrs	r16, 3
    27dc:	11 91       	ld	r17, Z+
    27de:	ef 01       	movw	r28, r30
    27e0:	18 36       	cpi	r17, 0x68	; 104
    27e2:	61 f4       	brne	.+24     	; 0x27fc <vfscanf+0x100>
    27e4:	87 2d       	mov	r24, r7
    27e6:	88 60       	ori	r24, 0x08	; 8
    27e8:	78 2e       	mov	r7, r24
    27ea:	97 2d       	mov	r25, r7
    27ec:	94 60       	ori	r25, 0x04	; 4
    27ee:	79 2e       	mov	r7, r25
    27f0:	fe 01       	movw	r30, r28
    27f2:	03 fd       	sbrc	r16, 3
    27f4:	15 91       	lpm	r17, Z+
    27f6:	03 ff       	sbrs	r16, 3
    27f8:	11 91       	ld	r17, Z+
    27fa:	ef 01       	movw	r28, r30
    27fc:	11 23       	and	r17, r17
    27fe:	09 f4       	brne	.+2      	; 0x2802 <vfscanf+0x106>
    2800:	a5 c0       	rjmp	.+330    	; 0x294c <vfscanf+0x250>
    2802:	61 2f       	mov	r22, r17
    2804:	70 e0       	ldi	r23, 0x00	; 0
    2806:	8a e7       	ldi	r24, 0x7A	; 122
    2808:	91 e0       	ldi	r25, 0x01	; 1
    280a:	0e 94 47 19 	call	0x328e	; 0x328e <strchr_P>
    280e:	89 2b       	or	r24, r25
    2810:	09 f4       	brne	.+2      	; 0x2814 <vfscanf+0x118>
    2812:	9c c0       	rjmp	.+312    	; 0x294c <vfscanf+0x250>
    2814:	70 fc       	sbrc	r7, 0
    2816:	07 c0       	rjmp	.+14     	; 0x2826 <vfscanf+0x12a>
    2818:	f4 01       	movw	r30, r8
    281a:	c0 80       	ld	r12, Z
    281c:	d1 80       	ldd	r13, Z+1	; 0x01
    281e:	c4 01       	movw	r24, r8
    2820:	02 96       	adiw	r24, 0x02	; 2
    2822:	4c 01       	movw	r8, r24
    2824:	02 c0       	rjmp	.+4      	; 0x282a <vfscanf+0x12e>
    2826:	c1 2c       	mov	r12, r1
    2828:	d1 2c       	mov	r13, r1
    282a:	1e 36       	cpi	r17, 0x6E	; 110
    282c:	51 f4       	brne	.+20     	; 0x2842 <vfscanf+0x146>
    282e:	f5 01       	movw	r30, r10
    2830:	46 81       	ldd	r20, Z+6	; 0x06
    2832:	57 81       	ldd	r21, Z+7	; 0x07
    2834:	60 e0       	ldi	r22, 0x00	; 0
    2836:	70 e0       	ldi	r23, 0x00	; 0
    2838:	27 2d       	mov	r18, r7
    283a:	c6 01       	movw	r24, r12
    283c:	0e 94 a2 10 	call	0x2144	; 0x2144 <putval>
    2840:	6a cf       	rjmp	.-300    	; 0x2716 <vfscanf+0x1a>
    2842:	13 36       	cpi	r17, 0x63	; 99
    2844:	b9 f4       	brne	.+46     	; 0x2874 <vfscanf+0x178>
    2846:	71 fc       	sbrc	r7, 1
    2848:	03 c0       	rjmp	.+6      	; 0x2850 <vfscanf+0x154>
    284a:	ee 24       	eor	r14, r14
    284c:	e3 94       	inc	r14
    284e:	f1 2c       	mov	r15, r1
    2850:	c5 01       	movw	r24, r10
    2852:	0e 94 c6 19 	call	0x338c	; 0x338c <fgetc>
    2856:	97 fd       	sbrc	r25, 7
    2858:	77 c0       	rjmp	.+238    	; 0x2948 <vfscanf+0x24c>
    285a:	c1 14       	cp	r12, r1
    285c:	d1 04       	cpc	r13, r1
    285e:	29 f0       	breq	.+10     	; 0x286a <vfscanf+0x16e>
    2860:	f6 01       	movw	r30, r12
    2862:	80 83       	st	Z, r24
    2864:	c6 01       	movw	r24, r12
    2866:	01 96       	adiw	r24, 0x01	; 1
    2868:	6c 01       	movw	r12, r24
    286a:	91 e0       	ldi	r25, 0x01	; 1
    286c:	e9 1a       	sub	r14, r25
    286e:	f1 08       	sbc	r15, r1
    2870:	79 f7       	brne	.-34     	; 0x2850 <vfscanf+0x154>
    2872:	66 c0       	rjmp	.+204    	; 0x2940 <vfscanf+0x244>
    2874:	1b 35       	cpi	r17, 0x5B	; 91
    2876:	59 f4       	brne	.+22     	; 0x288e <vfscanf+0x192>
    2878:	9e 01       	movw	r18, r28
    287a:	a6 01       	movw	r20, r12
    287c:	b7 01       	movw	r22, r14
    287e:	c5 01       	movw	r24, r10
    2880:	0e 94 78 11 	call	0x22f0	; 0x22f0 <conv_brk>
    2884:	ec 01       	movw	r28, r24
    2886:	89 2b       	or	r24, r25
    2888:	09 f0       	breq	.+2      	; 0x288c <vfscanf+0x190>
    288a:	5a c0       	rjmp	.+180    	; 0x2940 <vfscanf+0x244>
    288c:	54 c0       	rjmp	.+168    	; 0x2936 <vfscanf+0x23a>
    288e:	c5 01       	movw	r24, r10
    2890:	0e 94 d5 10 	call	0x21aa	; 0x21aa <skip_spaces>
    2894:	97 fd       	sbrc	r25, 7
    2896:	58 c0       	rjmp	.+176    	; 0x2948 <vfscanf+0x24c>
    2898:	1f 36       	cpi	r17, 0x6F	; 111
    289a:	e1 f1       	breq	.+120    	; 0x2914 <vfscanf+0x218>
    289c:	40 f4       	brcc	.+16     	; 0x28ae <vfscanf+0x1b2>
    289e:	14 36       	cpi	r17, 0x64	; 100
    28a0:	a9 f1       	breq	.+106    	; 0x290c <vfscanf+0x210>
    28a2:	19 36       	cpi	r17, 0x69	; 105
    28a4:	d1 f1       	breq	.+116    	; 0x291a <vfscanf+0x21e>
    28a6:	18 35       	cpi	r17, 0x58	; 88
    28a8:	09 f0       	breq	.+2      	; 0x28ac <vfscanf+0x1b0>
    28aa:	3e c0       	rjmp	.+124    	; 0x2928 <vfscanf+0x22c>
    28ac:	2b c0       	rjmp	.+86     	; 0x2904 <vfscanf+0x208>
    28ae:	13 37       	cpi	r17, 0x73	; 115
    28b0:	a9 f0       	breq	.+42     	; 0x28dc <vfscanf+0x1e0>
    28b2:	18 f4       	brcc	.+6      	; 0x28ba <vfscanf+0x1be>
    28b4:	10 37       	cpi	r17, 0x70	; 112
    28b6:	31 f1       	breq	.+76     	; 0x2904 <vfscanf+0x208>
    28b8:	37 c0       	rjmp	.+110    	; 0x2928 <vfscanf+0x22c>
    28ba:	15 37       	cpi	r17, 0x75	; 117
    28bc:	39 f1       	breq	.+78     	; 0x290c <vfscanf+0x210>
    28be:	18 37       	cpi	r17, 0x78	; 120
    28c0:	09 f1       	breq	.+66     	; 0x2904 <vfscanf+0x208>
    28c2:	32 c0       	rjmp	.+100    	; 0x2928 <vfscanf+0x22c>
    28c4:	c1 14       	cp	r12, r1
    28c6:	d1 04       	cpc	r13, r1
    28c8:	29 f0       	breq	.+10     	; 0x28d4 <vfscanf+0x1d8>
    28ca:	f6 01       	movw	r30, r12
    28cc:	00 83       	st	Z, r16
    28ce:	c6 01       	movw	r24, r12
    28d0:	01 96       	adiw	r24, 0x01	; 1
    28d2:	6c 01       	movw	r12, r24
    28d4:	91 e0       	ldi	r25, 0x01	; 1
    28d6:	e9 1a       	sub	r14, r25
    28d8:	f1 08       	sbc	r15, r1
    28da:	71 f0       	breq	.+28     	; 0x28f8 <vfscanf+0x1fc>
    28dc:	c5 01       	movw	r24, r10
    28de:	0e 94 c6 19 	call	0x338c	; 0x338c <fgetc>
    28e2:	8c 01       	movw	r16, r24
    28e4:	97 fd       	sbrc	r25, 7
    28e6:	08 c0       	rjmp	.+16     	; 0x28f8 <vfscanf+0x1fc>
    28e8:	0e 94 36 19 	call	0x326c	; 0x326c <isspace>
    28ec:	89 2b       	or	r24, r25
    28ee:	51 f3       	breq	.-44     	; 0x28c4 <vfscanf+0x1c8>
    28f0:	b5 01       	movw	r22, r10
    28f2:	c8 01       	movw	r24, r16
    28f4:	0e 94 9f 1a 	call	0x353e	; 0x353e <ungetc>
    28f8:	c1 14       	cp	r12, r1
    28fa:	d1 04       	cpc	r13, r1
    28fc:	09 f1       	breq	.+66     	; 0x2940 <vfscanf+0x244>
    28fe:	f6 01       	movw	r30, r12
    2900:	10 82       	st	Z, r1
    2902:	1e c0       	rjmp	.+60     	; 0x2940 <vfscanf+0x244>
    2904:	f7 2d       	mov	r31, r7
    2906:	f0 64       	ori	r31, 0x40	; 64
    2908:	7f 2e       	mov	r7, r31
    290a:	07 c0       	rjmp	.+14     	; 0x291a <vfscanf+0x21e>
    290c:	87 2d       	mov	r24, r7
    290e:	80 62       	ori	r24, 0x20	; 32
    2910:	78 2e       	mov	r7, r24
    2912:	03 c0       	rjmp	.+6      	; 0x291a <vfscanf+0x21e>
    2914:	97 2d       	mov	r25, r7
    2916:	90 61       	ori	r25, 0x10	; 16
    2918:	79 2e       	mov	r7, r25
    291a:	27 2d       	mov	r18, r7
    291c:	a6 01       	movw	r20, r12
    291e:	b7 01       	movw	r22, r14
    2920:	c5 01       	movw	r24, r10
    2922:	0e 94 ee 10 	call	0x21dc	; 0x21dc <conv_int>
    2926:	05 c0       	rjmp	.+10     	; 0x2932 <vfscanf+0x236>
    2928:	a6 01       	movw	r20, r12
    292a:	b7 01       	movw	r22, r14
    292c:	c5 01       	movw	r24, r10
    292e:	0e 94 3a 12 	call	0x2474	; 0x2474 <conv_flt>
    2932:	81 11       	cpse	r24, r1
    2934:	05 c0       	rjmp	.+10     	; 0x2940 <vfscanf+0x244>
    2936:	f5 01       	movw	r30, r10
    2938:	83 81       	ldd	r24, Z+3	; 0x03
    293a:	80 73       	andi	r24, 0x30	; 48
    293c:	29 f4       	brne	.+10     	; 0x2948 <vfscanf+0x24c>
    293e:	06 c0       	rjmp	.+12     	; 0x294c <vfscanf+0x250>
    2940:	70 fc       	sbrc	r7, 0
    2942:	e9 ce       	rjmp	.-558    	; 0x2716 <vfscanf+0x1a>
    2944:	63 94       	inc	r6
    2946:	e7 ce       	rjmp	.-562    	; 0x2716 <vfscanf+0x1a>
    2948:	66 20       	and	r6, r6
    294a:	19 f0       	breq	.+6      	; 0x2952 <vfscanf+0x256>
    294c:	86 2d       	mov	r24, r6
    294e:	90 e0       	ldi	r25, 0x00	; 0
    2950:	02 c0       	rjmp	.+4      	; 0x2956 <vfscanf+0x25a>
    2952:	8f ef       	ldi	r24, 0xFF	; 255
    2954:	9f ef       	ldi	r25, 0xFF	; 255
    2956:	cd b7       	in	r28, 0x3d	; 61
    2958:	de b7       	in	r29, 0x3e	; 62
    295a:	ee e0       	ldi	r30, 0x0E	; 14
    295c:	0c 94 4a 18 	jmp	0x3094	; 0x3094 <__epilogue_restores__+0x8>

00002960 <vfprintf>:
    2960:	a0 e1       	ldi	r26, 0x10	; 16
    2962:	b0 e0       	ldi	r27, 0x00	; 0
    2964:	e6 eb       	ldi	r30, 0xB6	; 182
    2966:	f4 e1       	ldi	r31, 0x14	; 20
    2968:	0c 94 2d 18 	jmp	0x305a	; 0x305a <__prologue_saves__>
    296c:	7c 01       	movw	r14, r24
    296e:	1b 01       	movw	r2, r22
    2970:	6a 01       	movw	r12, r20
    2972:	fc 01       	movw	r30, r24
    2974:	16 82       	std	Z+6, r1	; 0x06
    2976:	17 82       	std	Z+7, r1	; 0x07
    2978:	83 81       	ldd	r24, Z+3	; 0x03
    297a:	81 ff       	sbrs	r24, 1
    297c:	44 c3       	rjmp	.+1672   	; 0x3006 <vfprintf+0x6a6>
    297e:	9e 01       	movw	r18, r28
    2980:	2f 5f       	subi	r18, 0xFF	; 255
    2982:	3f 4f       	sbci	r19, 0xFF	; 255
    2984:	39 01       	movw	r6, r18
    2986:	f7 01       	movw	r30, r14
    2988:	93 81       	ldd	r25, Z+3	; 0x03
    298a:	f1 01       	movw	r30, r2
    298c:	93 fd       	sbrc	r25, 3
    298e:	85 91       	lpm	r24, Z+
    2990:	93 ff       	sbrs	r25, 3
    2992:	81 91       	ld	r24, Z+
    2994:	1f 01       	movw	r2, r30
    2996:	88 23       	and	r24, r24
    2998:	09 f4       	brne	.+2      	; 0x299c <vfprintf+0x3c>
    299a:	31 c3       	rjmp	.+1634   	; 0x2ffe <vfprintf+0x69e>
    299c:	85 32       	cpi	r24, 0x25	; 37
    299e:	39 f4       	brne	.+14     	; 0x29ae <vfprintf+0x4e>
    29a0:	93 fd       	sbrc	r25, 3
    29a2:	85 91       	lpm	r24, Z+
    29a4:	93 ff       	sbrs	r25, 3
    29a6:	81 91       	ld	r24, Z+
    29a8:	1f 01       	movw	r2, r30
    29aa:	85 32       	cpi	r24, 0x25	; 37
    29ac:	39 f4       	brne	.+14     	; 0x29bc <vfprintf+0x5c>
    29ae:	b7 01       	movw	r22, r14
    29b0:	90 e0       	ldi	r25, 0x00	; 0
    29b2:	0e 94 04 1a 	call	0x3408	; 0x3408 <fputc>
    29b6:	56 01       	movw	r10, r12
    29b8:	65 01       	movw	r12, r10
    29ba:	e5 cf       	rjmp	.-54     	; 0x2986 <vfprintf+0x26>
    29bc:	10 e0       	ldi	r17, 0x00	; 0
    29be:	51 2c       	mov	r5, r1
    29c0:	91 2c       	mov	r9, r1
    29c2:	ff e1       	ldi	r31, 0x1F	; 31
    29c4:	f9 15       	cp	r31, r9
    29c6:	d8 f0       	brcs	.+54     	; 0x29fe <vfprintf+0x9e>
    29c8:	8b 32       	cpi	r24, 0x2B	; 43
    29ca:	79 f0       	breq	.+30     	; 0x29ea <vfprintf+0x8a>
    29cc:	38 f4       	brcc	.+14     	; 0x29dc <vfprintf+0x7c>
    29ce:	80 32       	cpi	r24, 0x20	; 32
    29d0:	79 f0       	breq	.+30     	; 0x29f0 <vfprintf+0x90>
    29d2:	83 32       	cpi	r24, 0x23	; 35
    29d4:	a1 f4       	brne	.+40     	; 0x29fe <vfprintf+0x9e>
    29d6:	f9 2d       	mov	r31, r9
    29d8:	f0 61       	ori	r31, 0x10	; 16
    29da:	2e c0       	rjmp	.+92     	; 0x2a38 <vfprintf+0xd8>
    29dc:	8d 32       	cpi	r24, 0x2D	; 45
    29de:	61 f0       	breq	.+24     	; 0x29f8 <vfprintf+0x98>
    29e0:	80 33       	cpi	r24, 0x30	; 48
    29e2:	69 f4       	brne	.+26     	; 0x29fe <vfprintf+0x9e>
    29e4:	29 2d       	mov	r18, r9
    29e6:	21 60       	ori	r18, 0x01	; 1
    29e8:	2d c0       	rjmp	.+90     	; 0x2a44 <vfprintf+0xe4>
    29ea:	39 2d       	mov	r19, r9
    29ec:	32 60       	ori	r19, 0x02	; 2
    29ee:	93 2e       	mov	r9, r19
    29f0:	89 2d       	mov	r24, r9
    29f2:	84 60       	ori	r24, 0x04	; 4
    29f4:	98 2e       	mov	r9, r24
    29f6:	2a c0       	rjmp	.+84     	; 0x2a4c <vfprintf+0xec>
    29f8:	e9 2d       	mov	r30, r9
    29fa:	e8 60       	ori	r30, 0x08	; 8
    29fc:	15 c0       	rjmp	.+42     	; 0x2a28 <vfprintf+0xc8>
    29fe:	97 fc       	sbrc	r9, 7
    2a00:	2d c0       	rjmp	.+90     	; 0x2a5c <vfprintf+0xfc>
    2a02:	20 ed       	ldi	r18, 0xD0	; 208
    2a04:	28 0f       	add	r18, r24
    2a06:	2a 30       	cpi	r18, 0x0A	; 10
    2a08:	88 f4       	brcc	.+34     	; 0x2a2c <vfprintf+0xcc>
    2a0a:	96 fe       	sbrs	r9, 6
    2a0c:	06 c0       	rjmp	.+12     	; 0x2a1a <vfprintf+0xba>
    2a0e:	3a e0       	ldi	r19, 0x0A	; 10
    2a10:	13 9f       	mul	r17, r19
    2a12:	20 0d       	add	r18, r0
    2a14:	11 24       	eor	r1, r1
    2a16:	12 2f       	mov	r17, r18
    2a18:	19 c0       	rjmp	.+50     	; 0x2a4c <vfprintf+0xec>
    2a1a:	8a e0       	ldi	r24, 0x0A	; 10
    2a1c:	58 9e       	mul	r5, r24
    2a1e:	20 0d       	add	r18, r0
    2a20:	11 24       	eor	r1, r1
    2a22:	52 2e       	mov	r5, r18
    2a24:	e9 2d       	mov	r30, r9
    2a26:	e0 62       	ori	r30, 0x20	; 32
    2a28:	9e 2e       	mov	r9, r30
    2a2a:	10 c0       	rjmp	.+32     	; 0x2a4c <vfprintf+0xec>
    2a2c:	8e 32       	cpi	r24, 0x2E	; 46
    2a2e:	31 f4       	brne	.+12     	; 0x2a3c <vfprintf+0xdc>
    2a30:	96 fc       	sbrc	r9, 6
    2a32:	e5 c2       	rjmp	.+1482   	; 0x2ffe <vfprintf+0x69e>
    2a34:	f9 2d       	mov	r31, r9
    2a36:	f0 64       	ori	r31, 0x40	; 64
    2a38:	9f 2e       	mov	r9, r31
    2a3a:	08 c0       	rjmp	.+16     	; 0x2a4c <vfprintf+0xec>
    2a3c:	8c 36       	cpi	r24, 0x6C	; 108
    2a3e:	21 f4       	brne	.+8      	; 0x2a48 <vfprintf+0xe8>
    2a40:	29 2d       	mov	r18, r9
    2a42:	20 68       	ori	r18, 0x80	; 128
    2a44:	92 2e       	mov	r9, r18
    2a46:	02 c0       	rjmp	.+4      	; 0x2a4c <vfprintf+0xec>
    2a48:	88 36       	cpi	r24, 0x68	; 104
    2a4a:	41 f4       	brne	.+16     	; 0x2a5c <vfprintf+0xfc>
    2a4c:	f1 01       	movw	r30, r2
    2a4e:	93 fd       	sbrc	r25, 3
    2a50:	85 91       	lpm	r24, Z+
    2a52:	93 ff       	sbrs	r25, 3
    2a54:	81 91       	ld	r24, Z+
    2a56:	1f 01       	movw	r2, r30
    2a58:	81 11       	cpse	r24, r1
    2a5a:	b3 cf       	rjmp	.-154    	; 0x29c2 <vfprintf+0x62>
    2a5c:	9b eb       	ldi	r25, 0xBB	; 187
    2a5e:	98 0f       	add	r25, r24
    2a60:	93 30       	cpi	r25, 0x03	; 3
    2a62:	20 f4       	brcc	.+8      	; 0x2a6c <vfprintf+0x10c>
    2a64:	99 2d       	mov	r25, r9
    2a66:	90 61       	ori	r25, 0x10	; 16
    2a68:	80 5e       	subi	r24, 0xE0	; 224
    2a6a:	07 c0       	rjmp	.+14     	; 0x2a7a <vfprintf+0x11a>
    2a6c:	9b e9       	ldi	r25, 0x9B	; 155
    2a6e:	98 0f       	add	r25, r24
    2a70:	93 30       	cpi	r25, 0x03	; 3
    2a72:	08 f0       	brcs	.+2      	; 0x2a76 <vfprintf+0x116>
    2a74:	66 c1       	rjmp	.+716    	; 0x2d42 <vfprintf+0x3e2>
    2a76:	99 2d       	mov	r25, r9
    2a78:	9f 7e       	andi	r25, 0xEF	; 239
    2a7a:	96 ff       	sbrs	r25, 6
    2a7c:	16 e0       	ldi	r17, 0x06	; 6
    2a7e:	9f 73       	andi	r25, 0x3F	; 63
    2a80:	99 2e       	mov	r9, r25
    2a82:	85 36       	cpi	r24, 0x65	; 101
    2a84:	19 f4       	brne	.+6      	; 0x2a8c <vfprintf+0x12c>
    2a86:	90 64       	ori	r25, 0x40	; 64
    2a88:	99 2e       	mov	r9, r25
    2a8a:	08 c0       	rjmp	.+16     	; 0x2a9c <vfprintf+0x13c>
    2a8c:	86 36       	cpi	r24, 0x66	; 102
    2a8e:	21 f4       	brne	.+8      	; 0x2a98 <vfprintf+0x138>
    2a90:	39 2f       	mov	r19, r25
    2a92:	30 68       	ori	r19, 0x80	; 128
    2a94:	93 2e       	mov	r9, r19
    2a96:	02 c0       	rjmp	.+4      	; 0x2a9c <vfprintf+0x13c>
    2a98:	11 11       	cpse	r17, r1
    2a9a:	11 50       	subi	r17, 0x01	; 1
    2a9c:	97 fe       	sbrs	r9, 7
    2a9e:	07 c0       	rjmp	.+14     	; 0x2aae <vfprintf+0x14e>
    2aa0:	1c 33       	cpi	r17, 0x3C	; 60
    2aa2:	50 f4       	brcc	.+20     	; 0x2ab8 <vfprintf+0x158>
    2aa4:	44 24       	eor	r4, r4
    2aa6:	43 94       	inc	r4
    2aa8:	41 0e       	add	r4, r17
    2aaa:	27 e0       	ldi	r18, 0x07	; 7
    2aac:	0b c0       	rjmp	.+22     	; 0x2ac4 <vfprintf+0x164>
    2aae:	18 30       	cpi	r17, 0x08	; 8
    2ab0:	38 f0       	brcs	.+14     	; 0x2ac0 <vfprintf+0x160>
    2ab2:	27 e0       	ldi	r18, 0x07	; 7
    2ab4:	17 e0       	ldi	r17, 0x07	; 7
    2ab6:	05 c0       	rjmp	.+10     	; 0x2ac2 <vfprintf+0x162>
    2ab8:	27 e0       	ldi	r18, 0x07	; 7
    2aba:	9c e3       	ldi	r25, 0x3C	; 60
    2abc:	49 2e       	mov	r4, r25
    2abe:	02 c0       	rjmp	.+4      	; 0x2ac4 <vfprintf+0x164>
    2ac0:	21 2f       	mov	r18, r17
    2ac2:	41 2c       	mov	r4, r1
    2ac4:	56 01       	movw	r10, r12
    2ac6:	84 e0       	ldi	r24, 0x04	; 4
    2ac8:	a8 0e       	add	r10, r24
    2aca:	b1 1c       	adc	r11, r1
    2acc:	f6 01       	movw	r30, r12
    2ace:	60 81       	ld	r22, Z
    2ad0:	71 81       	ldd	r23, Z+1	; 0x01
    2ad2:	82 81       	ldd	r24, Z+2	; 0x02
    2ad4:	93 81       	ldd	r25, Z+3	; 0x03
    2ad6:	04 2d       	mov	r16, r4
    2ad8:	a3 01       	movw	r20, r6
    2ada:	0e 94 5e 18 	call	0x30bc	; 0x30bc <__ftoa_engine>
    2ade:	6c 01       	movw	r12, r24
    2ae0:	f9 81       	ldd	r31, Y+1	; 0x01
    2ae2:	fc 87       	std	Y+12, r31	; 0x0c
    2ae4:	f0 ff       	sbrs	r31, 0
    2ae6:	02 c0       	rjmp	.+4      	; 0x2aec <vfprintf+0x18c>
    2ae8:	f3 ff       	sbrs	r31, 3
    2aea:	06 c0       	rjmp	.+12     	; 0x2af8 <vfprintf+0x198>
    2aec:	91 fc       	sbrc	r9, 1
    2aee:	06 c0       	rjmp	.+12     	; 0x2afc <vfprintf+0x19c>
    2af0:	92 fe       	sbrs	r9, 2
    2af2:	06 c0       	rjmp	.+12     	; 0x2b00 <vfprintf+0x1a0>
    2af4:	00 e2       	ldi	r16, 0x20	; 32
    2af6:	05 c0       	rjmp	.+10     	; 0x2b02 <vfprintf+0x1a2>
    2af8:	0d e2       	ldi	r16, 0x2D	; 45
    2afa:	03 c0       	rjmp	.+6      	; 0x2b02 <vfprintf+0x1a2>
    2afc:	0b e2       	ldi	r16, 0x2B	; 43
    2afe:	01 c0       	rjmp	.+2      	; 0x2b02 <vfprintf+0x1a2>
    2b00:	00 e0       	ldi	r16, 0x00	; 0
    2b02:	8c 85       	ldd	r24, Y+12	; 0x0c
    2b04:	8c 70       	andi	r24, 0x0C	; 12
    2b06:	19 f0       	breq	.+6      	; 0x2b0e <vfprintf+0x1ae>
    2b08:	01 11       	cpse	r16, r1
    2b0a:	5a c2       	rjmp	.+1204   	; 0x2fc0 <vfprintf+0x660>
    2b0c:	9b c2       	rjmp	.+1334   	; 0x3044 <vfprintf+0x6e4>
    2b0e:	97 fe       	sbrs	r9, 7
    2b10:	10 c0       	rjmp	.+32     	; 0x2b32 <vfprintf+0x1d2>
    2b12:	4c 0c       	add	r4, r12
    2b14:	fc 85       	ldd	r31, Y+12	; 0x0c
    2b16:	f4 ff       	sbrs	r31, 4
    2b18:	04 c0       	rjmp	.+8      	; 0x2b22 <vfprintf+0x1c2>
    2b1a:	8a 81       	ldd	r24, Y+2	; 0x02
    2b1c:	81 33       	cpi	r24, 0x31	; 49
    2b1e:	09 f4       	brne	.+2      	; 0x2b22 <vfprintf+0x1c2>
    2b20:	4a 94       	dec	r4
    2b22:	14 14       	cp	r1, r4
    2b24:	74 f5       	brge	.+92     	; 0x2b82 <vfprintf+0x222>
    2b26:	28 e0       	ldi	r18, 0x08	; 8
    2b28:	24 15       	cp	r18, r4
    2b2a:	78 f5       	brcc	.+94     	; 0x2b8a <vfprintf+0x22a>
    2b2c:	88 e0       	ldi	r24, 0x08	; 8
    2b2e:	48 2e       	mov	r4, r24
    2b30:	2c c0       	rjmp	.+88     	; 0x2b8a <vfprintf+0x22a>
    2b32:	96 fc       	sbrc	r9, 6
    2b34:	2a c0       	rjmp	.+84     	; 0x2b8a <vfprintf+0x22a>
    2b36:	81 2f       	mov	r24, r17
    2b38:	90 e0       	ldi	r25, 0x00	; 0
    2b3a:	8c 15       	cp	r24, r12
    2b3c:	9d 05       	cpc	r25, r13
    2b3e:	9c f0       	brlt	.+38     	; 0x2b66 <vfprintf+0x206>
    2b40:	3c ef       	ldi	r19, 0xFC	; 252
    2b42:	c3 16       	cp	r12, r19
    2b44:	3f ef       	ldi	r19, 0xFF	; 255
    2b46:	d3 06       	cpc	r13, r19
    2b48:	74 f0       	brlt	.+28     	; 0x2b66 <vfprintf+0x206>
    2b4a:	89 2d       	mov	r24, r9
    2b4c:	80 68       	ori	r24, 0x80	; 128
    2b4e:	98 2e       	mov	r9, r24
    2b50:	0a c0       	rjmp	.+20     	; 0x2b66 <vfprintf+0x206>
    2b52:	e2 e0       	ldi	r30, 0x02	; 2
    2b54:	f0 e0       	ldi	r31, 0x00	; 0
    2b56:	ec 0f       	add	r30, r28
    2b58:	fd 1f       	adc	r31, r29
    2b5a:	e1 0f       	add	r30, r17
    2b5c:	f1 1d       	adc	r31, r1
    2b5e:	80 81       	ld	r24, Z
    2b60:	80 33       	cpi	r24, 0x30	; 48
    2b62:	19 f4       	brne	.+6      	; 0x2b6a <vfprintf+0x20a>
    2b64:	11 50       	subi	r17, 0x01	; 1
    2b66:	11 11       	cpse	r17, r1
    2b68:	f4 cf       	rjmp	.-24     	; 0x2b52 <vfprintf+0x1f2>
    2b6a:	97 fe       	sbrs	r9, 7
    2b6c:	0e c0       	rjmp	.+28     	; 0x2b8a <vfprintf+0x22a>
    2b6e:	44 24       	eor	r4, r4
    2b70:	43 94       	inc	r4
    2b72:	41 0e       	add	r4, r17
    2b74:	81 2f       	mov	r24, r17
    2b76:	90 e0       	ldi	r25, 0x00	; 0
    2b78:	c8 16       	cp	r12, r24
    2b7a:	d9 06       	cpc	r13, r25
    2b7c:	2c f4       	brge	.+10     	; 0x2b88 <vfprintf+0x228>
    2b7e:	1c 19       	sub	r17, r12
    2b80:	04 c0       	rjmp	.+8      	; 0x2b8a <vfprintf+0x22a>
    2b82:	44 24       	eor	r4, r4
    2b84:	43 94       	inc	r4
    2b86:	01 c0       	rjmp	.+2      	; 0x2b8a <vfprintf+0x22a>
    2b88:	10 e0       	ldi	r17, 0x00	; 0
    2b8a:	97 fe       	sbrs	r9, 7
    2b8c:	06 c0       	rjmp	.+12     	; 0x2b9a <vfprintf+0x23a>
    2b8e:	1c 14       	cp	r1, r12
    2b90:	1d 04       	cpc	r1, r13
    2b92:	34 f4       	brge	.+12     	; 0x2ba0 <vfprintf+0x240>
    2b94:	c6 01       	movw	r24, r12
    2b96:	01 96       	adiw	r24, 0x01	; 1
    2b98:	05 c0       	rjmp	.+10     	; 0x2ba4 <vfprintf+0x244>
    2b9a:	85 e0       	ldi	r24, 0x05	; 5
    2b9c:	90 e0       	ldi	r25, 0x00	; 0
    2b9e:	02 c0       	rjmp	.+4      	; 0x2ba4 <vfprintf+0x244>
    2ba0:	81 e0       	ldi	r24, 0x01	; 1
    2ba2:	90 e0       	ldi	r25, 0x00	; 0
    2ba4:	01 11       	cpse	r16, r1
    2ba6:	01 96       	adiw	r24, 0x01	; 1
    2ba8:	11 23       	and	r17, r17
    2baa:	31 f0       	breq	.+12     	; 0x2bb8 <vfprintf+0x258>
    2bac:	21 2f       	mov	r18, r17
    2bae:	30 e0       	ldi	r19, 0x00	; 0
    2bb0:	2f 5f       	subi	r18, 0xFF	; 255
    2bb2:	3f 4f       	sbci	r19, 0xFF	; 255
    2bb4:	82 0f       	add	r24, r18
    2bb6:	93 1f       	adc	r25, r19
    2bb8:	25 2d       	mov	r18, r5
    2bba:	30 e0       	ldi	r19, 0x00	; 0
    2bbc:	82 17       	cp	r24, r18
    2bbe:	93 07       	cpc	r25, r19
    2bc0:	14 f4       	brge	.+4      	; 0x2bc6 <vfprintf+0x266>
    2bc2:	58 1a       	sub	r5, r24
    2bc4:	01 c0       	rjmp	.+2      	; 0x2bc8 <vfprintf+0x268>
    2bc6:	51 2c       	mov	r5, r1
    2bc8:	89 2d       	mov	r24, r9
    2bca:	89 70       	andi	r24, 0x09	; 9
    2bcc:	49 f4       	brne	.+18     	; 0x2be0 <vfprintf+0x280>
    2bce:	55 20       	and	r5, r5
    2bd0:	39 f0       	breq	.+14     	; 0x2be0 <vfprintf+0x280>
    2bd2:	b7 01       	movw	r22, r14
    2bd4:	80 e2       	ldi	r24, 0x20	; 32
    2bd6:	90 e0       	ldi	r25, 0x00	; 0
    2bd8:	0e 94 04 1a 	call	0x3408	; 0x3408 <fputc>
    2bdc:	5a 94       	dec	r5
    2bde:	f7 cf       	rjmp	.-18     	; 0x2bce <vfprintf+0x26e>
    2be0:	00 23       	and	r16, r16
    2be2:	29 f0       	breq	.+10     	; 0x2bee <vfprintf+0x28e>
    2be4:	b7 01       	movw	r22, r14
    2be6:	80 2f       	mov	r24, r16
    2be8:	90 e0       	ldi	r25, 0x00	; 0
    2bea:	0e 94 04 1a 	call	0x3408	; 0x3408 <fputc>
    2bee:	93 fc       	sbrc	r9, 3
    2bf0:	09 c0       	rjmp	.+18     	; 0x2c04 <vfprintf+0x2a4>
    2bf2:	55 20       	and	r5, r5
    2bf4:	39 f0       	breq	.+14     	; 0x2c04 <vfprintf+0x2a4>
    2bf6:	b7 01       	movw	r22, r14
    2bf8:	80 e3       	ldi	r24, 0x30	; 48
    2bfa:	90 e0       	ldi	r25, 0x00	; 0
    2bfc:	0e 94 04 1a 	call	0x3408	; 0x3408 <fputc>
    2c00:	5a 94       	dec	r5
    2c02:	f7 cf       	rjmp	.-18     	; 0x2bf2 <vfprintf+0x292>
    2c04:	97 fe       	sbrs	r9, 7
    2c06:	4c c0       	rjmp	.+152    	; 0x2ca0 <vfprintf+0x340>
    2c08:	46 01       	movw	r8, r12
    2c0a:	d7 fe       	sbrs	r13, 7
    2c0c:	02 c0       	rjmp	.+4      	; 0x2c12 <vfprintf+0x2b2>
    2c0e:	81 2c       	mov	r8, r1
    2c10:	91 2c       	mov	r9, r1
    2c12:	c6 01       	movw	r24, r12
    2c14:	88 19       	sub	r24, r8
    2c16:	99 09       	sbc	r25, r9
    2c18:	f3 01       	movw	r30, r6
    2c1a:	e8 0f       	add	r30, r24
    2c1c:	f9 1f       	adc	r31, r25
    2c1e:	ed 87       	std	Y+13, r30	; 0x0d
    2c20:	fe 87       	std	Y+14, r31	; 0x0e
    2c22:	96 01       	movw	r18, r12
    2c24:	24 19       	sub	r18, r4
    2c26:	31 09       	sbc	r19, r1
    2c28:	2f 87       	std	Y+15, r18	; 0x0f
    2c2a:	38 8b       	std	Y+16, r19	; 0x10
    2c2c:	01 2f       	mov	r16, r17
    2c2e:	10 e0       	ldi	r17, 0x00	; 0
    2c30:	11 95       	neg	r17
    2c32:	01 95       	neg	r16
    2c34:	11 09       	sbc	r17, r1
    2c36:	3f ef       	ldi	r19, 0xFF	; 255
    2c38:	83 16       	cp	r8, r19
    2c3a:	93 06       	cpc	r9, r19
    2c3c:	29 f4       	brne	.+10     	; 0x2c48 <vfprintf+0x2e8>
    2c3e:	b7 01       	movw	r22, r14
    2c40:	8e e2       	ldi	r24, 0x2E	; 46
    2c42:	90 e0       	ldi	r25, 0x00	; 0
    2c44:	0e 94 04 1a 	call	0x3408	; 0x3408 <fputc>
    2c48:	c8 14       	cp	r12, r8
    2c4a:	d9 04       	cpc	r13, r9
    2c4c:	4c f0       	brlt	.+18     	; 0x2c60 <vfprintf+0x300>
    2c4e:	8f 85       	ldd	r24, Y+15	; 0x0f
    2c50:	98 89       	ldd	r25, Y+16	; 0x10
    2c52:	88 15       	cp	r24, r8
    2c54:	99 05       	cpc	r25, r9
    2c56:	24 f4       	brge	.+8      	; 0x2c60 <vfprintf+0x300>
    2c58:	ed 85       	ldd	r30, Y+13	; 0x0d
    2c5a:	fe 85       	ldd	r31, Y+14	; 0x0e
    2c5c:	81 81       	ldd	r24, Z+1	; 0x01
    2c5e:	01 c0       	rjmp	.+2      	; 0x2c62 <vfprintf+0x302>
    2c60:	80 e3       	ldi	r24, 0x30	; 48
    2c62:	f1 e0       	ldi	r31, 0x01	; 1
    2c64:	8f 1a       	sub	r8, r31
    2c66:	91 08       	sbc	r9, r1
    2c68:	2d 85       	ldd	r18, Y+13	; 0x0d
    2c6a:	3e 85       	ldd	r19, Y+14	; 0x0e
    2c6c:	2f 5f       	subi	r18, 0xFF	; 255
    2c6e:	3f 4f       	sbci	r19, 0xFF	; 255
    2c70:	2d 87       	std	Y+13, r18	; 0x0d
    2c72:	3e 87       	std	Y+14, r19	; 0x0e
    2c74:	80 16       	cp	r8, r16
    2c76:	91 06       	cpc	r9, r17
    2c78:	2c f0       	brlt	.+10     	; 0x2c84 <vfprintf+0x324>
    2c7a:	b7 01       	movw	r22, r14
    2c7c:	90 e0       	ldi	r25, 0x00	; 0
    2c7e:	0e 94 04 1a 	call	0x3408	; 0x3408 <fputc>
    2c82:	d9 cf       	rjmp	.-78     	; 0x2c36 <vfprintf+0x2d6>
    2c84:	c8 14       	cp	r12, r8
    2c86:	d9 04       	cpc	r13, r9
    2c88:	41 f4       	brne	.+16     	; 0x2c9a <vfprintf+0x33a>
    2c8a:	9a 81       	ldd	r25, Y+2	; 0x02
    2c8c:	96 33       	cpi	r25, 0x36	; 54
    2c8e:	20 f4       	brcc	.+8      	; 0x2c98 <vfprintf+0x338>
    2c90:	95 33       	cpi	r25, 0x35	; 53
    2c92:	19 f4       	brne	.+6      	; 0x2c9a <vfprintf+0x33a>
    2c94:	3c 85       	ldd	r19, Y+12	; 0x0c
    2c96:	34 ff       	sbrs	r19, 4
    2c98:	81 e3       	ldi	r24, 0x31	; 49
    2c9a:	b7 01       	movw	r22, r14
    2c9c:	90 e0       	ldi	r25, 0x00	; 0
    2c9e:	4e c0       	rjmp	.+156    	; 0x2d3c <vfprintf+0x3dc>
    2ca0:	8a 81       	ldd	r24, Y+2	; 0x02
    2ca2:	81 33       	cpi	r24, 0x31	; 49
    2ca4:	19 f0       	breq	.+6      	; 0x2cac <vfprintf+0x34c>
    2ca6:	9c 85       	ldd	r25, Y+12	; 0x0c
    2ca8:	9f 7e       	andi	r25, 0xEF	; 239
    2caa:	9c 87       	std	Y+12, r25	; 0x0c
    2cac:	b7 01       	movw	r22, r14
    2cae:	90 e0       	ldi	r25, 0x00	; 0
    2cb0:	0e 94 04 1a 	call	0x3408	; 0x3408 <fputc>
    2cb4:	11 11       	cpse	r17, r1
    2cb6:	05 c0       	rjmp	.+10     	; 0x2cc2 <vfprintf+0x362>
    2cb8:	94 fc       	sbrc	r9, 4
    2cba:	18 c0       	rjmp	.+48     	; 0x2cec <vfprintf+0x38c>
    2cbc:	85 e6       	ldi	r24, 0x65	; 101
    2cbe:	90 e0       	ldi	r25, 0x00	; 0
    2cc0:	17 c0       	rjmp	.+46     	; 0x2cf0 <vfprintf+0x390>
    2cc2:	b7 01       	movw	r22, r14
    2cc4:	8e e2       	ldi	r24, 0x2E	; 46
    2cc6:	90 e0       	ldi	r25, 0x00	; 0
    2cc8:	0e 94 04 1a 	call	0x3408	; 0x3408 <fputc>
    2ccc:	1e 5f       	subi	r17, 0xFE	; 254
    2cce:	82 e0       	ldi	r24, 0x02	; 2
    2cd0:	01 e0       	ldi	r16, 0x01	; 1
    2cd2:	08 0f       	add	r16, r24
    2cd4:	f3 01       	movw	r30, r6
    2cd6:	e8 0f       	add	r30, r24
    2cd8:	f1 1d       	adc	r31, r1
    2cda:	80 81       	ld	r24, Z
    2cdc:	b7 01       	movw	r22, r14
    2cde:	90 e0       	ldi	r25, 0x00	; 0
    2ce0:	0e 94 04 1a 	call	0x3408	; 0x3408 <fputc>
    2ce4:	80 2f       	mov	r24, r16
    2ce6:	01 13       	cpse	r16, r17
    2ce8:	f3 cf       	rjmp	.-26     	; 0x2cd0 <vfprintf+0x370>
    2cea:	e6 cf       	rjmp	.-52     	; 0x2cb8 <vfprintf+0x358>
    2cec:	85 e4       	ldi	r24, 0x45	; 69
    2cee:	90 e0       	ldi	r25, 0x00	; 0
    2cf0:	b7 01       	movw	r22, r14
    2cf2:	0e 94 04 1a 	call	0x3408	; 0x3408 <fputc>
    2cf6:	d7 fc       	sbrc	r13, 7
    2cf8:	06 c0       	rjmp	.+12     	; 0x2d06 <vfprintf+0x3a6>
    2cfa:	c1 14       	cp	r12, r1
    2cfc:	d1 04       	cpc	r13, r1
    2cfe:	41 f4       	brne	.+16     	; 0x2d10 <vfprintf+0x3b0>
    2d00:	ec 85       	ldd	r30, Y+12	; 0x0c
    2d02:	e4 ff       	sbrs	r30, 4
    2d04:	05 c0       	rjmp	.+10     	; 0x2d10 <vfprintf+0x3b0>
    2d06:	d1 94       	neg	r13
    2d08:	c1 94       	neg	r12
    2d0a:	d1 08       	sbc	r13, r1
    2d0c:	8d e2       	ldi	r24, 0x2D	; 45
    2d0e:	01 c0       	rjmp	.+2      	; 0x2d12 <vfprintf+0x3b2>
    2d10:	8b e2       	ldi	r24, 0x2B	; 43
    2d12:	b7 01       	movw	r22, r14
    2d14:	90 e0       	ldi	r25, 0x00	; 0
    2d16:	0e 94 04 1a 	call	0x3408	; 0x3408 <fputc>
    2d1a:	80 e3       	ldi	r24, 0x30	; 48
    2d1c:	2a e0       	ldi	r18, 0x0A	; 10
    2d1e:	c2 16       	cp	r12, r18
    2d20:	d1 04       	cpc	r13, r1
    2d22:	2c f0       	brlt	.+10     	; 0x2d2e <vfprintf+0x3ce>
    2d24:	8f 5f       	subi	r24, 0xFF	; 255
    2d26:	fa e0       	ldi	r31, 0x0A	; 10
    2d28:	cf 1a       	sub	r12, r31
    2d2a:	d1 08       	sbc	r13, r1
    2d2c:	f7 cf       	rjmp	.-18     	; 0x2d1c <vfprintf+0x3bc>
    2d2e:	b7 01       	movw	r22, r14
    2d30:	90 e0       	ldi	r25, 0x00	; 0
    2d32:	0e 94 04 1a 	call	0x3408	; 0x3408 <fputc>
    2d36:	b7 01       	movw	r22, r14
    2d38:	c6 01       	movw	r24, r12
    2d3a:	c0 96       	adiw	r24, 0x30	; 48
    2d3c:	0e 94 04 1a 	call	0x3408	; 0x3408 <fputc>
    2d40:	54 c1       	rjmp	.+680    	; 0x2fea <vfprintf+0x68a>
    2d42:	83 36       	cpi	r24, 0x63	; 99
    2d44:	31 f0       	breq	.+12     	; 0x2d52 <vfprintf+0x3f2>
    2d46:	83 37       	cpi	r24, 0x73	; 115
    2d48:	79 f0       	breq	.+30     	; 0x2d68 <vfprintf+0x408>
    2d4a:	83 35       	cpi	r24, 0x53	; 83
    2d4c:	09 f0       	breq	.+2      	; 0x2d50 <vfprintf+0x3f0>
    2d4e:	56 c0       	rjmp	.+172    	; 0x2dfc <vfprintf+0x49c>
    2d50:	20 c0       	rjmp	.+64     	; 0x2d92 <vfprintf+0x432>
    2d52:	56 01       	movw	r10, r12
    2d54:	32 e0       	ldi	r19, 0x02	; 2
    2d56:	a3 0e       	add	r10, r19
    2d58:	b1 1c       	adc	r11, r1
    2d5a:	f6 01       	movw	r30, r12
    2d5c:	80 81       	ld	r24, Z
    2d5e:	89 83       	std	Y+1, r24	; 0x01
    2d60:	01 e0       	ldi	r16, 0x01	; 1
    2d62:	10 e0       	ldi	r17, 0x00	; 0
    2d64:	63 01       	movw	r12, r6
    2d66:	12 c0       	rjmp	.+36     	; 0x2d8c <vfprintf+0x42c>
    2d68:	56 01       	movw	r10, r12
    2d6a:	f2 e0       	ldi	r31, 0x02	; 2
    2d6c:	af 0e       	add	r10, r31
    2d6e:	b1 1c       	adc	r11, r1
    2d70:	f6 01       	movw	r30, r12
    2d72:	c0 80       	ld	r12, Z
    2d74:	d1 80       	ldd	r13, Z+1	; 0x01
    2d76:	96 fe       	sbrs	r9, 6
    2d78:	03 c0       	rjmp	.+6      	; 0x2d80 <vfprintf+0x420>
    2d7a:	61 2f       	mov	r22, r17
    2d7c:	70 e0       	ldi	r23, 0x00	; 0
    2d7e:	02 c0       	rjmp	.+4      	; 0x2d84 <vfprintf+0x424>
    2d80:	6f ef       	ldi	r22, 0xFF	; 255
    2d82:	7f ef       	ldi	r23, 0xFF	; 255
    2d84:	c6 01       	movw	r24, r12
    2d86:	0e 94 7a 19 	call	0x32f4	; 0x32f4 <strnlen>
    2d8a:	8c 01       	movw	r16, r24
    2d8c:	f9 2d       	mov	r31, r9
    2d8e:	ff 77       	andi	r31, 0x7F	; 127
    2d90:	14 c0       	rjmp	.+40     	; 0x2dba <vfprintf+0x45a>
    2d92:	56 01       	movw	r10, r12
    2d94:	22 e0       	ldi	r18, 0x02	; 2
    2d96:	a2 0e       	add	r10, r18
    2d98:	b1 1c       	adc	r11, r1
    2d9a:	f6 01       	movw	r30, r12
    2d9c:	c0 80       	ld	r12, Z
    2d9e:	d1 80       	ldd	r13, Z+1	; 0x01
    2da0:	96 fe       	sbrs	r9, 6
    2da2:	03 c0       	rjmp	.+6      	; 0x2daa <vfprintf+0x44a>
    2da4:	61 2f       	mov	r22, r17
    2da6:	70 e0       	ldi	r23, 0x00	; 0
    2da8:	02 c0       	rjmp	.+4      	; 0x2dae <vfprintf+0x44e>
    2daa:	6f ef       	ldi	r22, 0xFF	; 255
    2dac:	7f ef       	ldi	r23, 0xFF	; 255
    2dae:	c6 01       	movw	r24, r12
    2db0:	0e 94 52 19 	call	0x32a4	; 0x32a4 <strnlen_P>
    2db4:	8c 01       	movw	r16, r24
    2db6:	f9 2d       	mov	r31, r9
    2db8:	f0 68       	ori	r31, 0x80	; 128
    2dba:	9f 2e       	mov	r9, r31
    2dbc:	f3 fd       	sbrc	r31, 3
    2dbe:	1a c0       	rjmp	.+52     	; 0x2df4 <vfprintf+0x494>
    2dc0:	85 2d       	mov	r24, r5
    2dc2:	90 e0       	ldi	r25, 0x00	; 0
    2dc4:	08 17       	cp	r16, r24
    2dc6:	19 07       	cpc	r17, r25
    2dc8:	a8 f4       	brcc	.+42     	; 0x2df4 <vfprintf+0x494>
    2dca:	b7 01       	movw	r22, r14
    2dcc:	80 e2       	ldi	r24, 0x20	; 32
    2dce:	90 e0       	ldi	r25, 0x00	; 0
    2dd0:	0e 94 04 1a 	call	0x3408	; 0x3408 <fputc>
    2dd4:	5a 94       	dec	r5
    2dd6:	f4 cf       	rjmp	.-24     	; 0x2dc0 <vfprintf+0x460>
    2dd8:	f6 01       	movw	r30, r12
    2dda:	97 fc       	sbrc	r9, 7
    2ddc:	85 91       	lpm	r24, Z+
    2dde:	97 fe       	sbrs	r9, 7
    2de0:	81 91       	ld	r24, Z+
    2de2:	6f 01       	movw	r12, r30
    2de4:	b7 01       	movw	r22, r14
    2de6:	90 e0       	ldi	r25, 0x00	; 0
    2de8:	0e 94 04 1a 	call	0x3408	; 0x3408 <fputc>
    2dec:	51 10       	cpse	r5, r1
    2dee:	5a 94       	dec	r5
    2df0:	01 50       	subi	r16, 0x01	; 1
    2df2:	11 09       	sbc	r17, r1
    2df4:	01 15       	cp	r16, r1
    2df6:	11 05       	cpc	r17, r1
    2df8:	79 f7       	brne	.-34     	; 0x2dd8 <vfprintf+0x478>
    2dfa:	f7 c0       	rjmp	.+494    	; 0x2fea <vfprintf+0x68a>
    2dfc:	84 36       	cpi	r24, 0x64	; 100
    2dfe:	11 f0       	breq	.+4      	; 0x2e04 <vfprintf+0x4a4>
    2e00:	89 36       	cpi	r24, 0x69	; 105
    2e02:	61 f5       	brne	.+88     	; 0x2e5c <vfprintf+0x4fc>
    2e04:	56 01       	movw	r10, r12
    2e06:	97 fe       	sbrs	r9, 7
    2e08:	09 c0       	rjmp	.+18     	; 0x2e1c <vfprintf+0x4bc>
    2e0a:	24 e0       	ldi	r18, 0x04	; 4
    2e0c:	a2 0e       	add	r10, r18
    2e0e:	b1 1c       	adc	r11, r1
    2e10:	f6 01       	movw	r30, r12
    2e12:	60 81       	ld	r22, Z
    2e14:	71 81       	ldd	r23, Z+1	; 0x01
    2e16:	82 81       	ldd	r24, Z+2	; 0x02
    2e18:	93 81       	ldd	r25, Z+3	; 0x03
    2e1a:	0a c0       	rjmp	.+20     	; 0x2e30 <vfprintf+0x4d0>
    2e1c:	f2 e0       	ldi	r31, 0x02	; 2
    2e1e:	af 0e       	add	r10, r31
    2e20:	b1 1c       	adc	r11, r1
    2e22:	f6 01       	movw	r30, r12
    2e24:	60 81       	ld	r22, Z
    2e26:	71 81       	ldd	r23, Z+1	; 0x01
    2e28:	07 2e       	mov	r0, r23
    2e2a:	00 0c       	add	r0, r0
    2e2c:	88 0b       	sbc	r24, r24
    2e2e:	99 0b       	sbc	r25, r25
    2e30:	f9 2d       	mov	r31, r9
    2e32:	ff 76       	andi	r31, 0x6F	; 111
    2e34:	9f 2e       	mov	r9, r31
    2e36:	97 ff       	sbrs	r25, 7
    2e38:	09 c0       	rjmp	.+18     	; 0x2e4c <vfprintf+0x4ec>
    2e3a:	90 95       	com	r25
    2e3c:	80 95       	com	r24
    2e3e:	70 95       	com	r23
    2e40:	61 95       	neg	r22
    2e42:	7f 4f       	sbci	r23, 0xFF	; 255
    2e44:	8f 4f       	sbci	r24, 0xFF	; 255
    2e46:	9f 4f       	sbci	r25, 0xFF	; 255
    2e48:	f0 68       	ori	r31, 0x80	; 128
    2e4a:	9f 2e       	mov	r9, r31
    2e4c:	2a e0       	ldi	r18, 0x0A	; 10
    2e4e:	30 e0       	ldi	r19, 0x00	; 0
    2e50:	a3 01       	movw	r20, r6
    2e52:	0e 94 b8 1a 	call	0x3570	; 0x3570 <__ultoa_invert>
    2e56:	c8 2e       	mov	r12, r24
    2e58:	c6 18       	sub	r12, r6
    2e5a:	3f c0       	rjmp	.+126    	; 0x2eda <vfprintf+0x57a>
    2e5c:	09 2d       	mov	r16, r9
    2e5e:	85 37       	cpi	r24, 0x75	; 117
    2e60:	21 f4       	brne	.+8      	; 0x2e6a <vfprintf+0x50a>
    2e62:	0f 7e       	andi	r16, 0xEF	; 239
    2e64:	2a e0       	ldi	r18, 0x0A	; 10
    2e66:	30 e0       	ldi	r19, 0x00	; 0
    2e68:	1d c0       	rjmp	.+58     	; 0x2ea4 <vfprintf+0x544>
    2e6a:	09 7f       	andi	r16, 0xF9	; 249
    2e6c:	8f 36       	cpi	r24, 0x6F	; 111
    2e6e:	91 f0       	breq	.+36     	; 0x2e94 <vfprintf+0x534>
    2e70:	18 f4       	brcc	.+6      	; 0x2e78 <vfprintf+0x518>
    2e72:	88 35       	cpi	r24, 0x58	; 88
    2e74:	59 f0       	breq	.+22     	; 0x2e8c <vfprintf+0x52c>
    2e76:	c3 c0       	rjmp	.+390    	; 0x2ffe <vfprintf+0x69e>
    2e78:	80 37       	cpi	r24, 0x70	; 112
    2e7a:	19 f0       	breq	.+6      	; 0x2e82 <vfprintf+0x522>
    2e7c:	88 37       	cpi	r24, 0x78	; 120
    2e7e:	11 f0       	breq	.+4      	; 0x2e84 <vfprintf+0x524>
    2e80:	be c0       	rjmp	.+380    	; 0x2ffe <vfprintf+0x69e>
    2e82:	00 61       	ori	r16, 0x10	; 16
    2e84:	04 ff       	sbrs	r16, 4
    2e86:	09 c0       	rjmp	.+18     	; 0x2e9a <vfprintf+0x53a>
    2e88:	04 60       	ori	r16, 0x04	; 4
    2e8a:	07 c0       	rjmp	.+14     	; 0x2e9a <vfprintf+0x53a>
    2e8c:	94 fe       	sbrs	r9, 4
    2e8e:	08 c0       	rjmp	.+16     	; 0x2ea0 <vfprintf+0x540>
    2e90:	06 60       	ori	r16, 0x06	; 6
    2e92:	06 c0       	rjmp	.+12     	; 0x2ea0 <vfprintf+0x540>
    2e94:	28 e0       	ldi	r18, 0x08	; 8
    2e96:	30 e0       	ldi	r19, 0x00	; 0
    2e98:	05 c0       	rjmp	.+10     	; 0x2ea4 <vfprintf+0x544>
    2e9a:	20 e1       	ldi	r18, 0x10	; 16
    2e9c:	30 e0       	ldi	r19, 0x00	; 0
    2e9e:	02 c0       	rjmp	.+4      	; 0x2ea4 <vfprintf+0x544>
    2ea0:	20 e1       	ldi	r18, 0x10	; 16
    2ea2:	32 e0       	ldi	r19, 0x02	; 2
    2ea4:	56 01       	movw	r10, r12
    2ea6:	07 ff       	sbrs	r16, 7
    2ea8:	09 c0       	rjmp	.+18     	; 0x2ebc <vfprintf+0x55c>
    2eaa:	84 e0       	ldi	r24, 0x04	; 4
    2eac:	a8 0e       	add	r10, r24
    2eae:	b1 1c       	adc	r11, r1
    2eb0:	f6 01       	movw	r30, r12
    2eb2:	60 81       	ld	r22, Z
    2eb4:	71 81       	ldd	r23, Z+1	; 0x01
    2eb6:	82 81       	ldd	r24, Z+2	; 0x02
    2eb8:	93 81       	ldd	r25, Z+3	; 0x03
    2eba:	08 c0       	rjmp	.+16     	; 0x2ecc <vfprintf+0x56c>
    2ebc:	f2 e0       	ldi	r31, 0x02	; 2
    2ebe:	af 0e       	add	r10, r31
    2ec0:	b1 1c       	adc	r11, r1
    2ec2:	f6 01       	movw	r30, r12
    2ec4:	60 81       	ld	r22, Z
    2ec6:	71 81       	ldd	r23, Z+1	; 0x01
    2ec8:	80 e0       	ldi	r24, 0x00	; 0
    2eca:	90 e0       	ldi	r25, 0x00	; 0
    2ecc:	a3 01       	movw	r20, r6
    2ece:	0e 94 b8 1a 	call	0x3570	; 0x3570 <__ultoa_invert>
    2ed2:	c8 2e       	mov	r12, r24
    2ed4:	c6 18       	sub	r12, r6
    2ed6:	0f 77       	andi	r16, 0x7F	; 127
    2ed8:	90 2e       	mov	r9, r16
    2eda:	96 fe       	sbrs	r9, 6
    2edc:	0b c0       	rjmp	.+22     	; 0x2ef4 <vfprintf+0x594>
    2ede:	09 2d       	mov	r16, r9
    2ee0:	0e 7f       	andi	r16, 0xFE	; 254
    2ee2:	c1 16       	cp	r12, r17
    2ee4:	50 f4       	brcc	.+20     	; 0x2efa <vfprintf+0x59a>
    2ee6:	94 fe       	sbrs	r9, 4
    2ee8:	0a c0       	rjmp	.+20     	; 0x2efe <vfprintf+0x59e>
    2eea:	92 fc       	sbrc	r9, 2
    2eec:	08 c0       	rjmp	.+16     	; 0x2efe <vfprintf+0x59e>
    2eee:	09 2d       	mov	r16, r9
    2ef0:	0e 7e       	andi	r16, 0xEE	; 238
    2ef2:	05 c0       	rjmp	.+10     	; 0x2efe <vfprintf+0x59e>
    2ef4:	dc 2c       	mov	r13, r12
    2ef6:	09 2d       	mov	r16, r9
    2ef8:	03 c0       	rjmp	.+6      	; 0x2f00 <vfprintf+0x5a0>
    2efa:	dc 2c       	mov	r13, r12
    2efc:	01 c0       	rjmp	.+2      	; 0x2f00 <vfprintf+0x5a0>
    2efe:	d1 2e       	mov	r13, r17
    2f00:	04 ff       	sbrs	r16, 4
    2f02:	0d c0       	rjmp	.+26     	; 0x2f1e <vfprintf+0x5be>
    2f04:	fe 01       	movw	r30, r28
    2f06:	ec 0d       	add	r30, r12
    2f08:	f1 1d       	adc	r31, r1
    2f0a:	80 81       	ld	r24, Z
    2f0c:	80 33       	cpi	r24, 0x30	; 48
    2f0e:	11 f4       	brne	.+4      	; 0x2f14 <vfprintf+0x5b4>
    2f10:	09 7e       	andi	r16, 0xE9	; 233
    2f12:	09 c0       	rjmp	.+18     	; 0x2f26 <vfprintf+0x5c6>
    2f14:	02 ff       	sbrs	r16, 2
    2f16:	06 c0       	rjmp	.+12     	; 0x2f24 <vfprintf+0x5c4>
    2f18:	d3 94       	inc	r13
    2f1a:	d3 94       	inc	r13
    2f1c:	04 c0       	rjmp	.+8      	; 0x2f26 <vfprintf+0x5c6>
    2f1e:	80 2f       	mov	r24, r16
    2f20:	86 78       	andi	r24, 0x86	; 134
    2f22:	09 f0       	breq	.+2      	; 0x2f26 <vfprintf+0x5c6>
    2f24:	d3 94       	inc	r13
    2f26:	03 fd       	sbrc	r16, 3
    2f28:	11 c0       	rjmp	.+34     	; 0x2f4c <vfprintf+0x5ec>
    2f2a:	00 ff       	sbrs	r16, 0
    2f2c:	06 c0       	rjmp	.+12     	; 0x2f3a <vfprintf+0x5da>
    2f2e:	1c 2d       	mov	r17, r12
    2f30:	d5 14       	cp	r13, r5
    2f32:	80 f4       	brcc	.+32     	; 0x2f54 <vfprintf+0x5f4>
    2f34:	15 0d       	add	r17, r5
    2f36:	1d 19       	sub	r17, r13
    2f38:	0d c0       	rjmp	.+26     	; 0x2f54 <vfprintf+0x5f4>
    2f3a:	d5 14       	cp	r13, r5
    2f3c:	58 f4       	brcc	.+22     	; 0x2f54 <vfprintf+0x5f4>
    2f3e:	b7 01       	movw	r22, r14
    2f40:	80 e2       	ldi	r24, 0x20	; 32
    2f42:	90 e0       	ldi	r25, 0x00	; 0
    2f44:	0e 94 04 1a 	call	0x3408	; 0x3408 <fputc>
    2f48:	d3 94       	inc	r13
    2f4a:	f7 cf       	rjmp	.-18     	; 0x2f3a <vfprintf+0x5da>
    2f4c:	d5 14       	cp	r13, r5
    2f4e:	10 f4       	brcc	.+4      	; 0x2f54 <vfprintf+0x5f4>
    2f50:	5d 18       	sub	r5, r13
    2f52:	01 c0       	rjmp	.+2      	; 0x2f56 <vfprintf+0x5f6>
    2f54:	51 2c       	mov	r5, r1
    2f56:	04 ff       	sbrs	r16, 4
    2f58:	10 c0       	rjmp	.+32     	; 0x2f7a <vfprintf+0x61a>
    2f5a:	b7 01       	movw	r22, r14
    2f5c:	80 e3       	ldi	r24, 0x30	; 48
    2f5e:	90 e0       	ldi	r25, 0x00	; 0
    2f60:	0e 94 04 1a 	call	0x3408	; 0x3408 <fputc>
    2f64:	02 ff       	sbrs	r16, 2
    2f66:	17 c0       	rjmp	.+46     	; 0x2f96 <vfprintf+0x636>
    2f68:	01 fd       	sbrc	r16, 1
    2f6a:	03 c0       	rjmp	.+6      	; 0x2f72 <vfprintf+0x612>
    2f6c:	88 e7       	ldi	r24, 0x78	; 120
    2f6e:	90 e0       	ldi	r25, 0x00	; 0
    2f70:	02 c0       	rjmp	.+4      	; 0x2f76 <vfprintf+0x616>
    2f72:	88 e5       	ldi	r24, 0x58	; 88
    2f74:	90 e0       	ldi	r25, 0x00	; 0
    2f76:	b7 01       	movw	r22, r14
    2f78:	0c c0       	rjmp	.+24     	; 0x2f92 <vfprintf+0x632>
    2f7a:	80 2f       	mov	r24, r16
    2f7c:	86 78       	andi	r24, 0x86	; 134
    2f7e:	59 f0       	breq	.+22     	; 0x2f96 <vfprintf+0x636>
    2f80:	01 ff       	sbrs	r16, 1
    2f82:	02 c0       	rjmp	.+4      	; 0x2f88 <vfprintf+0x628>
    2f84:	8b e2       	ldi	r24, 0x2B	; 43
    2f86:	01 c0       	rjmp	.+2      	; 0x2f8a <vfprintf+0x62a>
    2f88:	80 e2       	ldi	r24, 0x20	; 32
    2f8a:	07 fd       	sbrc	r16, 7
    2f8c:	8d e2       	ldi	r24, 0x2D	; 45
    2f8e:	b7 01       	movw	r22, r14
    2f90:	90 e0       	ldi	r25, 0x00	; 0
    2f92:	0e 94 04 1a 	call	0x3408	; 0x3408 <fputc>
    2f96:	c1 16       	cp	r12, r17
    2f98:	38 f4       	brcc	.+14     	; 0x2fa8 <vfprintf+0x648>
    2f9a:	b7 01       	movw	r22, r14
    2f9c:	80 e3       	ldi	r24, 0x30	; 48
    2f9e:	90 e0       	ldi	r25, 0x00	; 0
    2fa0:	0e 94 04 1a 	call	0x3408	; 0x3408 <fputc>
    2fa4:	11 50       	subi	r17, 0x01	; 1
    2fa6:	f7 cf       	rjmp	.-18     	; 0x2f96 <vfprintf+0x636>
    2fa8:	ca 94       	dec	r12
    2faa:	f3 01       	movw	r30, r6
    2fac:	ec 0d       	add	r30, r12
    2fae:	f1 1d       	adc	r31, r1
    2fb0:	80 81       	ld	r24, Z
    2fb2:	b7 01       	movw	r22, r14
    2fb4:	90 e0       	ldi	r25, 0x00	; 0
    2fb6:	0e 94 04 1a 	call	0x3408	; 0x3408 <fputc>
    2fba:	c1 10       	cpse	r12, r1
    2fbc:	f5 cf       	rjmp	.-22     	; 0x2fa8 <vfprintf+0x648>
    2fbe:	15 c0       	rjmp	.+42     	; 0x2fea <vfprintf+0x68a>
    2fc0:	f4 e0       	ldi	r31, 0x04	; 4
    2fc2:	f5 15       	cp	r31, r5
    2fc4:	60 f5       	brcc	.+88     	; 0x301e <vfprintf+0x6be>
    2fc6:	84 e0       	ldi	r24, 0x04	; 4
    2fc8:	58 1a       	sub	r5, r24
    2fca:	93 fe       	sbrs	r9, 3
    2fcc:	1f c0       	rjmp	.+62     	; 0x300c <vfprintf+0x6ac>
    2fce:	01 11       	cpse	r16, r1
    2fd0:	27 c0       	rjmp	.+78     	; 0x3020 <vfprintf+0x6c0>
    2fd2:	2c 85       	ldd	r18, Y+12	; 0x0c
    2fd4:	23 ff       	sbrs	r18, 3
    2fd6:	2a c0       	rjmp	.+84     	; 0x302c <vfprintf+0x6cc>
    2fd8:	08 e7       	ldi	r16, 0x78	; 120
    2fda:	10 e0       	ldi	r17, 0x00	; 0
    2fdc:	39 2d       	mov	r19, r9
    2fde:	30 71       	andi	r19, 0x10	; 16
    2fe0:	93 2e       	mov	r9, r19
    2fe2:	f8 01       	movw	r30, r16
    2fe4:	84 91       	lpm	r24, Z
    2fe6:	81 11       	cpse	r24, r1
    2fe8:	24 c0       	rjmp	.+72     	; 0x3032 <vfprintf+0x6d2>
    2fea:	55 20       	and	r5, r5
    2fec:	09 f4       	brne	.+2      	; 0x2ff0 <vfprintf+0x690>
    2fee:	e4 cc       	rjmp	.-1592   	; 0x29b8 <vfprintf+0x58>
    2ff0:	b7 01       	movw	r22, r14
    2ff2:	80 e2       	ldi	r24, 0x20	; 32
    2ff4:	90 e0       	ldi	r25, 0x00	; 0
    2ff6:	0e 94 04 1a 	call	0x3408	; 0x3408 <fputc>
    2ffa:	5a 94       	dec	r5
    2ffc:	f6 cf       	rjmp	.-20     	; 0x2fea <vfprintf+0x68a>
    2ffe:	f7 01       	movw	r30, r14
    3000:	86 81       	ldd	r24, Z+6	; 0x06
    3002:	97 81       	ldd	r25, Z+7	; 0x07
    3004:	26 c0       	rjmp	.+76     	; 0x3052 <vfprintf+0x6f2>
    3006:	8f ef       	ldi	r24, 0xFF	; 255
    3008:	9f ef       	ldi	r25, 0xFF	; 255
    300a:	23 c0       	rjmp	.+70     	; 0x3052 <vfprintf+0x6f2>
    300c:	b7 01       	movw	r22, r14
    300e:	80 e2       	ldi	r24, 0x20	; 32
    3010:	90 e0       	ldi	r25, 0x00	; 0
    3012:	0e 94 04 1a 	call	0x3408	; 0x3408 <fputc>
    3016:	5a 94       	dec	r5
    3018:	51 10       	cpse	r5, r1
    301a:	f8 cf       	rjmp	.-16     	; 0x300c <vfprintf+0x6ac>
    301c:	d8 cf       	rjmp	.-80     	; 0x2fce <vfprintf+0x66e>
    301e:	51 2c       	mov	r5, r1
    3020:	b7 01       	movw	r22, r14
    3022:	80 2f       	mov	r24, r16
    3024:	90 e0       	ldi	r25, 0x00	; 0
    3026:	0e 94 04 1a 	call	0x3408	; 0x3408 <fputc>
    302a:	d3 cf       	rjmp	.-90     	; 0x2fd2 <vfprintf+0x672>
    302c:	0c e7       	ldi	r16, 0x7C	; 124
    302e:	10 e0       	ldi	r17, 0x00	; 0
    3030:	d5 cf       	rjmp	.-86     	; 0x2fdc <vfprintf+0x67c>
    3032:	91 10       	cpse	r9, r1
    3034:	80 52       	subi	r24, 0x20	; 32
    3036:	b7 01       	movw	r22, r14
    3038:	90 e0       	ldi	r25, 0x00	; 0
    303a:	0e 94 04 1a 	call	0x3408	; 0x3408 <fputc>
    303e:	0f 5f       	subi	r16, 0xFF	; 255
    3040:	1f 4f       	sbci	r17, 0xFF	; 255
    3042:	cf cf       	rjmp	.-98     	; 0x2fe2 <vfprintf+0x682>
    3044:	23 e0       	ldi	r18, 0x03	; 3
    3046:	25 15       	cp	r18, r5
    3048:	10 f4       	brcc	.+4      	; 0x304e <vfprintf+0x6ee>
    304a:	83 e0       	ldi	r24, 0x03	; 3
    304c:	bd cf       	rjmp	.-134    	; 0x2fc8 <vfprintf+0x668>
    304e:	51 2c       	mov	r5, r1
    3050:	c0 cf       	rjmp	.-128    	; 0x2fd2 <vfprintf+0x672>
    3052:	60 96       	adiw	r28, 0x10	; 16
    3054:	e2 e1       	ldi	r30, 0x12	; 18
    3056:	0c 94 46 18 	jmp	0x308c	; 0x308c <__epilogue_restores__>

0000305a <__prologue_saves__>:
    305a:	2f 92       	push	r2
    305c:	3f 92       	push	r3
    305e:	4f 92       	push	r4
    3060:	5f 92       	push	r5
    3062:	6f 92       	push	r6
    3064:	7f 92       	push	r7
    3066:	8f 92       	push	r8
    3068:	9f 92       	push	r9
    306a:	af 92       	push	r10
    306c:	bf 92       	push	r11
    306e:	cf 92       	push	r12
    3070:	df 92       	push	r13
    3072:	ef 92       	push	r14
    3074:	ff 92       	push	r15
    3076:	0f 93       	push	r16
    3078:	1f 93       	push	r17
    307a:	cf 93       	push	r28
    307c:	df 93       	push	r29
    307e:	cd b7       	in	r28, 0x3d	; 61
    3080:	de b7       	in	r29, 0x3e	; 62
    3082:	ca 1b       	sub	r28, r26
    3084:	db 0b       	sbc	r29, r27
    3086:	cd bf       	out	0x3d, r28	; 61
    3088:	de bf       	out	0x3e, r29	; 62
    308a:	09 94       	ijmp

0000308c <__epilogue_restores__>:
    308c:	2a 88       	ldd	r2, Y+18	; 0x12
    308e:	39 88       	ldd	r3, Y+17	; 0x11
    3090:	48 88       	ldd	r4, Y+16	; 0x10
    3092:	5f 84       	ldd	r5, Y+15	; 0x0f
    3094:	6e 84       	ldd	r6, Y+14	; 0x0e
    3096:	7d 84       	ldd	r7, Y+13	; 0x0d
    3098:	8c 84       	ldd	r8, Y+12	; 0x0c
    309a:	9b 84       	ldd	r9, Y+11	; 0x0b
    309c:	aa 84       	ldd	r10, Y+10	; 0x0a
    309e:	b9 84       	ldd	r11, Y+9	; 0x09
    30a0:	c8 84       	ldd	r12, Y+8	; 0x08
    30a2:	df 80       	ldd	r13, Y+7	; 0x07
    30a4:	ee 80       	ldd	r14, Y+6	; 0x06
    30a6:	fd 80       	ldd	r15, Y+5	; 0x05
    30a8:	0c 81       	ldd	r16, Y+4	; 0x04
    30aa:	1b 81       	ldd	r17, Y+3	; 0x03
    30ac:	aa 81       	ldd	r26, Y+2	; 0x02
    30ae:	b9 81       	ldd	r27, Y+1	; 0x01
    30b0:	ce 0f       	add	r28, r30
    30b2:	d1 1d       	adc	r29, r1
    30b4:	cd bf       	out	0x3d, r28	; 61
    30b6:	de bf       	out	0x3e, r29	; 62
    30b8:	ed 01       	movw	r28, r26
    30ba:	08 95       	ret

000030bc <__ftoa_engine>:
    30bc:	28 30       	cpi	r18, 0x08	; 8
    30be:	08 f0       	brcs	.+2      	; 0x30c2 <__ftoa_engine+0x6>
    30c0:	27 e0       	ldi	r18, 0x07	; 7
    30c2:	33 27       	eor	r19, r19
    30c4:	da 01       	movw	r26, r20
    30c6:	99 0f       	add	r25, r25
    30c8:	31 1d       	adc	r19, r1
    30ca:	87 fd       	sbrc	r24, 7
    30cc:	91 60       	ori	r25, 0x01	; 1
    30ce:	00 96       	adiw	r24, 0x00	; 0
    30d0:	61 05       	cpc	r22, r1
    30d2:	71 05       	cpc	r23, r1
    30d4:	39 f4       	brne	.+14     	; 0x30e4 <__ftoa_engine+0x28>
    30d6:	32 60       	ori	r19, 0x02	; 2
    30d8:	2e 5f       	subi	r18, 0xFE	; 254
    30da:	3d 93       	st	X+, r19
    30dc:	30 e3       	ldi	r19, 0x30	; 48
    30de:	2a 95       	dec	r18
    30e0:	e1 f7       	brne	.-8      	; 0x30da <__ftoa_engine+0x1e>
    30e2:	08 95       	ret
    30e4:	9f 3f       	cpi	r25, 0xFF	; 255
    30e6:	30 f0       	brcs	.+12     	; 0x30f4 <__ftoa_engine+0x38>
    30e8:	80 38       	cpi	r24, 0x80	; 128
    30ea:	71 05       	cpc	r23, r1
    30ec:	61 05       	cpc	r22, r1
    30ee:	09 f0       	breq	.+2      	; 0x30f2 <__ftoa_engine+0x36>
    30f0:	3c 5f       	subi	r19, 0xFC	; 252
    30f2:	3c 5f       	subi	r19, 0xFC	; 252
    30f4:	3d 93       	st	X+, r19
    30f6:	91 30       	cpi	r25, 0x01	; 1
    30f8:	08 f0       	brcs	.+2      	; 0x30fc <__ftoa_engine+0x40>
    30fa:	80 68       	ori	r24, 0x80	; 128
    30fc:	91 1d       	adc	r25, r1
    30fe:	df 93       	push	r29
    3100:	cf 93       	push	r28
    3102:	1f 93       	push	r17
    3104:	0f 93       	push	r16
    3106:	ff 92       	push	r15
    3108:	ef 92       	push	r14
    310a:	19 2f       	mov	r17, r25
    310c:	98 7f       	andi	r25, 0xF8	; 248
    310e:	96 95       	lsr	r25
    3110:	e9 2f       	mov	r30, r25
    3112:	96 95       	lsr	r25
    3114:	96 95       	lsr	r25
    3116:	e9 0f       	add	r30, r25
    3118:	ff 27       	eor	r31, r31
    311a:	e6 52       	subi	r30, 0x26	; 38
    311c:	ff 4f       	sbci	r31, 0xFF	; 255
    311e:	99 27       	eor	r25, r25
    3120:	33 27       	eor	r19, r19
    3122:	ee 24       	eor	r14, r14
    3124:	ff 24       	eor	r15, r15
    3126:	a7 01       	movw	r20, r14
    3128:	e7 01       	movw	r28, r14
    312a:	05 90       	lpm	r0, Z+
    312c:	08 94       	sec
    312e:	07 94       	ror	r0
    3130:	28 f4       	brcc	.+10     	; 0x313c <__ftoa_engine+0x80>
    3132:	36 0f       	add	r19, r22
    3134:	e7 1e       	adc	r14, r23
    3136:	f8 1e       	adc	r15, r24
    3138:	49 1f       	adc	r20, r25
    313a:	51 1d       	adc	r21, r1
    313c:	66 0f       	add	r22, r22
    313e:	77 1f       	adc	r23, r23
    3140:	88 1f       	adc	r24, r24
    3142:	99 1f       	adc	r25, r25
    3144:	06 94       	lsr	r0
    3146:	a1 f7       	brne	.-24     	; 0x3130 <__ftoa_engine+0x74>
    3148:	05 90       	lpm	r0, Z+
    314a:	07 94       	ror	r0
    314c:	28 f4       	brcc	.+10     	; 0x3158 <__ftoa_engine+0x9c>
    314e:	e7 0e       	add	r14, r23
    3150:	f8 1e       	adc	r15, r24
    3152:	49 1f       	adc	r20, r25
    3154:	56 1f       	adc	r21, r22
    3156:	c1 1d       	adc	r28, r1
    3158:	77 0f       	add	r23, r23
    315a:	88 1f       	adc	r24, r24
    315c:	99 1f       	adc	r25, r25
    315e:	66 1f       	adc	r22, r22
    3160:	06 94       	lsr	r0
    3162:	a1 f7       	brne	.-24     	; 0x314c <__ftoa_engine+0x90>
    3164:	05 90       	lpm	r0, Z+
    3166:	07 94       	ror	r0
    3168:	28 f4       	brcc	.+10     	; 0x3174 <__ftoa_engine+0xb8>
    316a:	f8 0e       	add	r15, r24
    316c:	49 1f       	adc	r20, r25
    316e:	56 1f       	adc	r21, r22
    3170:	c7 1f       	adc	r28, r23
    3172:	d1 1d       	adc	r29, r1
    3174:	88 0f       	add	r24, r24
    3176:	99 1f       	adc	r25, r25
    3178:	66 1f       	adc	r22, r22
    317a:	77 1f       	adc	r23, r23
    317c:	06 94       	lsr	r0
    317e:	a1 f7       	brne	.-24     	; 0x3168 <__ftoa_engine+0xac>
    3180:	05 90       	lpm	r0, Z+
    3182:	07 94       	ror	r0
    3184:	20 f4       	brcc	.+8      	; 0x318e <__ftoa_engine+0xd2>
    3186:	49 0f       	add	r20, r25
    3188:	56 1f       	adc	r21, r22
    318a:	c7 1f       	adc	r28, r23
    318c:	d8 1f       	adc	r29, r24
    318e:	99 0f       	add	r25, r25
    3190:	66 1f       	adc	r22, r22
    3192:	77 1f       	adc	r23, r23
    3194:	88 1f       	adc	r24, r24
    3196:	06 94       	lsr	r0
    3198:	a9 f7       	brne	.-22     	; 0x3184 <__ftoa_engine+0xc8>
    319a:	84 91       	lpm	r24, Z
    319c:	10 95       	com	r17
    319e:	17 70       	andi	r17, 0x07	; 7
    31a0:	41 f0       	breq	.+16     	; 0x31b2 <__ftoa_engine+0xf6>
    31a2:	d6 95       	lsr	r29
    31a4:	c7 95       	ror	r28
    31a6:	57 95       	ror	r21
    31a8:	47 95       	ror	r20
    31aa:	f7 94       	ror	r15
    31ac:	e7 94       	ror	r14
    31ae:	1a 95       	dec	r17
    31b0:	c1 f7       	brne	.-16     	; 0x31a2 <__ftoa_engine+0xe6>
    31b2:	e0 e8       	ldi	r30, 0x80	; 128
    31b4:	f0 e0       	ldi	r31, 0x00	; 0
    31b6:	68 94       	set
    31b8:	15 90       	lpm	r1, Z+
    31ba:	15 91       	lpm	r17, Z+
    31bc:	35 91       	lpm	r19, Z+
    31be:	65 91       	lpm	r22, Z+
    31c0:	95 91       	lpm	r25, Z+
    31c2:	05 90       	lpm	r0, Z+
    31c4:	7f e2       	ldi	r23, 0x2F	; 47
    31c6:	73 95       	inc	r23
    31c8:	e1 18       	sub	r14, r1
    31ca:	f1 0a       	sbc	r15, r17
    31cc:	43 0b       	sbc	r20, r19
    31ce:	56 0b       	sbc	r21, r22
    31d0:	c9 0b       	sbc	r28, r25
    31d2:	d0 09       	sbc	r29, r0
    31d4:	c0 f7       	brcc	.-16     	; 0x31c6 <__ftoa_engine+0x10a>
    31d6:	e1 0c       	add	r14, r1
    31d8:	f1 1e       	adc	r15, r17
    31da:	43 1f       	adc	r20, r19
    31dc:	56 1f       	adc	r21, r22
    31de:	c9 1f       	adc	r28, r25
    31e0:	d0 1d       	adc	r29, r0
    31e2:	7e f4       	brtc	.+30     	; 0x3202 <__ftoa_engine+0x146>
    31e4:	70 33       	cpi	r23, 0x30	; 48
    31e6:	11 f4       	brne	.+4      	; 0x31ec <__ftoa_engine+0x130>
    31e8:	8a 95       	dec	r24
    31ea:	e6 cf       	rjmp	.-52     	; 0x31b8 <__ftoa_engine+0xfc>
    31ec:	e8 94       	clt
    31ee:	01 50       	subi	r16, 0x01	; 1
    31f0:	30 f0       	brcs	.+12     	; 0x31fe <__ftoa_engine+0x142>
    31f2:	08 0f       	add	r16, r24
    31f4:	0a f4       	brpl	.+2      	; 0x31f8 <__ftoa_engine+0x13c>
    31f6:	00 27       	eor	r16, r16
    31f8:	02 17       	cp	r16, r18
    31fa:	08 f4       	brcc	.+2      	; 0x31fe <__ftoa_engine+0x142>
    31fc:	20 2f       	mov	r18, r16
    31fe:	23 95       	inc	r18
    3200:	02 2f       	mov	r16, r18
    3202:	7a 33       	cpi	r23, 0x3A	; 58
    3204:	28 f0       	brcs	.+10     	; 0x3210 <__ftoa_engine+0x154>
    3206:	79 e3       	ldi	r23, 0x39	; 57
    3208:	7d 93       	st	X+, r23
    320a:	2a 95       	dec	r18
    320c:	e9 f7       	brne	.-6      	; 0x3208 <__ftoa_engine+0x14c>
    320e:	10 c0       	rjmp	.+32     	; 0x3230 <__ftoa_engine+0x174>
    3210:	7d 93       	st	X+, r23
    3212:	2a 95       	dec	r18
    3214:	89 f6       	brne	.-94     	; 0x31b8 <__ftoa_engine+0xfc>
    3216:	06 94       	lsr	r0
    3218:	97 95       	ror	r25
    321a:	67 95       	ror	r22
    321c:	37 95       	ror	r19
    321e:	17 95       	ror	r17
    3220:	17 94       	ror	r1
    3222:	e1 18       	sub	r14, r1
    3224:	f1 0a       	sbc	r15, r17
    3226:	43 0b       	sbc	r20, r19
    3228:	56 0b       	sbc	r21, r22
    322a:	c9 0b       	sbc	r28, r25
    322c:	d0 09       	sbc	r29, r0
    322e:	98 f0       	brcs	.+38     	; 0x3256 <__ftoa_engine+0x19a>
    3230:	23 95       	inc	r18
    3232:	7e 91       	ld	r23, -X
    3234:	73 95       	inc	r23
    3236:	7a 33       	cpi	r23, 0x3A	; 58
    3238:	08 f0       	brcs	.+2      	; 0x323c <__ftoa_engine+0x180>
    323a:	70 e3       	ldi	r23, 0x30	; 48
    323c:	7c 93       	st	X, r23
    323e:	20 13       	cpse	r18, r16
    3240:	b8 f7       	brcc	.-18     	; 0x3230 <__ftoa_engine+0x174>
    3242:	7e 91       	ld	r23, -X
    3244:	70 61       	ori	r23, 0x10	; 16
    3246:	7d 93       	st	X+, r23
    3248:	30 f0       	brcs	.+12     	; 0x3256 <__ftoa_engine+0x19a>
    324a:	83 95       	inc	r24
    324c:	71 e3       	ldi	r23, 0x31	; 49
    324e:	7d 93       	st	X+, r23
    3250:	70 e3       	ldi	r23, 0x30	; 48
    3252:	2a 95       	dec	r18
    3254:	e1 f7       	brne	.-8      	; 0x324e <__ftoa_engine+0x192>
    3256:	11 24       	eor	r1, r1
    3258:	ef 90       	pop	r14
    325a:	ff 90       	pop	r15
    325c:	0f 91       	pop	r16
    325e:	1f 91       	pop	r17
    3260:	cf 91       	pop	r28
    3262:	df 91       	pop	r29
    3264:	99 27       	eor	r25, r25
    3266:	87 fd       	sbrc	r24, 7
    3268:	90 95       	com	r25
    326a:	08 95       	ret

0000326c <isspace>:
    326c:	91 11       	cpse	r25, r1
    326e:	0c 94 16 1b 	jmp	0x362c	; 0x362c <__ctype_isfalse>
    3272:	80 32       	cpi	r24, 0x20	; 32
    3274:	19 f0       	breq	.+6      	; 0x327c <isspace+0x10>
    3276:	89 50       	subi	r24, 0x09	; 9
    3278:	85 50       	subi	r24, 0x05	; 5
    327a:	c8 f7       	brcc	.-14     	; 0x326e <isspace+0x2>
    327c:	08 95       	ret

0000327e <tolower>:
    327e:	91 11       	cpse	r25, r1
    3280:	08 95       	ret
    3282:	81 54       	subi	r24, 0x41	; 65
    3284:	8a 51       	subi	r24, 0x1A	; 26
    3286:	08 f4       	brcc	.+2      	; 0x328a <tolower+0xc>
    3288:	80 5e       	subi	r24, 0xE0	; 224
    328a:	85 5a       	subi	r24, 0xA5	; 165
    328c:	08 95       	ret

0000328e <strchr_P>:
    328e:	fc 01       	movw	r30, r24
    3290:	05 90       	lpm	r0, Z+
    3292:	06 16       	cp	r0, r22
    3294:	21 f0       	breq	.+8      	; 0x329e <strchr_P+0x10>
    3296:	00 20       	and	r0, r0
    3298:	d9 f7       	brne	.-10     	; 0x3290 <strchr_P+0x2>
    329a:	c0 01       	movw	r24, r0
    329c:	08 95       	ret
    329e:	31 97       	sbiw	r30, 0x01	; 1
    32a0:	cf 01       	movw	r24, r30
    32a2:	08 95       	ret

000032a4 <strnlen_P>:
    32a4:	fc 01       	movw	r30, r24
    32a6:	05 90       	lpm	r0, Z+
    32a8:	61 50       	subi	r22, 0x01	; 1
    32aa:	70 40       	sbci	r23, 0x00	; 0
    32ac:	01 10       	cpse	r0, r1
    32ae:	d8 f7       	brcc	.-10     	; 0x32a6 <strnlen_P+0x2>
    32b0:	80 95       	com	r24
    32b2:	90 95       	com	r25
    32b4:	8e 0f       	add	r24, r30
    32b6:	9f 1f       	adc	r25, r31
    32b8:	08 95       	ret

000032ba <strtok>:
    32ba:	40 e4       	ldi	r20, 0x40	; 64
    32bc:	58 e3       	ldi	r21, 0x38	; 56
    32be:	0e 94 9f 19 	call	0x333e	; 0x333e <strtok_r>
    32c2:	08 95       	ret

000032c4 <strcmp>:
    32c4:	fb 01       	movw	r30, r22
    32c6:	dc 01       	movw	r26, r24
    32c8:	8d 91       	ld	r24, X+
    32ca:	01 90       	ld	r0, Z+
    32cc:	80 19       	sub	r24, r0
    32ce:	01 10       	cpse	r0, r1
    32d0:	d9 f3       	breq	.-10     	; 0x32c8 <strcmp+0x4>
    32d2:	99 0b       	sbc	r25, r25
    32d4:	08 95       	ret

000032d6 <strncpy>:
    32d6:	fb 01       	movw	r30, r22
    32d8:	dc 01       	movw	r26, r24
    32da:	41 50       	subi	r20, 0x01	; 1
    32dc:	50 40       	sbci	r21, 0x00	; 0
    32de:	48 f0       	brcs	.+18     	; 0x32f2 <strncpy+0x1c>
    32e0:	01 90       	ld	r0, Z+
    32e2:	0d 92       	st	X+, r0
    32e4:	00 20       	and	r0, r0
    32e6:	c9 f7       	brne	.-14     	; 0x32da <strncpy+0x4>
    32e8:	01 c0       	rjmp	.+2      	; 0x32ec <strncpy+0x16>
    32ea:	1d 92       	st	X+, r1
    32ec:	41 50       	subi	r20, 0x01	; 1
    32ee:	50 40       	sbci	r21, 0x00	; 0
    32f0:	e0 f7       	brcc	.-8      	; 0x32ea <strncpy+0x14>
    32f2:	08 95       	ret

000032f4 <strnlen>:
    32f4:	fc 01       	movw	r30, r24
    32f6:	61 50       	subi	r22, 0x01	; 1
    32f8:	70 40       	sbci	r23, 0x00	; 0
    32fa:	01 90       	ld	r0, Z+
    32fc:	01 10       	cpse	r0, r1
    32fe:	d8 f7       	brcc	.-10     	; 0x32f6 <strnlen+0x2>
    3300:	80 95       	com	r24
    3302:	90 95       	com	r25
    3304:	8e 0f       	add	r24, r30
    3306:	9f 1f       	adc	r25, r31
    3308:	08 95       	ret

0000330a <strstr>:
    330a:	fb 01       	movw	r30, r22
    330c:	51 91       	ld	r21, Z+
    330e:	55 23       	and	r21, r21
    3310:	a9 f0       	breq	.+42     	; 0x333c <strstr+0x32>
    3312:	bf 01       	movw	r22, r30
    3314:	dc 01       	movw	r26, r24
    3316:	4d 91       	ld	r20, X+
    3318:	45 17       	cp	r20, r21
    331a:	41 11       	cpse	r20, r1
    331c:	e1 f7       	brne	.-8      	; 0x3316 <strstr+0xc>
    331e:	59 f4       	brne	.+22     	; 0x3336 <strstr+0x2c>
    3320:	cd 01       	movw	r24, r26
    3322:	01 90       	ld	r0, Z+
    3324:	00 20       	and	r0, r0
    3326:	49 f0       	breq	.+18     	; 0x333a <strstr+0x30>
    3328:	4d 91       	ld	r20, X+
    332a:	40 15       	cp	r20, r0
    332c:	41 11       	cpse	r20, r1
    332e:	c9 f3       	breq	.-14     	; 0x3322 <strstr+0x18>
    3330:	fb 01       	movw	r30, r22
    3332:	41 11       	cpse	r20, r1
    3334:	ef cf       	rjmp	.-34     	; 0x3314 <strstr+0xa>
    3336:	81 e0       	ldi	r24, 0x01	; 1
    3338:	90 e0       	ldi	r25, 0x00	; 0
    333a:	01 97       	sbiw	r24, 0x01	; 1
    333c:	08 95       	ret

0000333e <strtok_r>:
    333e:	fa 01       	movw	r30, r20
    3340:	a1 91       	ld	r26, Z+
    3342:	b0 81       	ld	r27, Z
    3344:	00 97       	sbiw	r24, 0x00	; 0
    3346:	19 f4       	brne	.+6      	; 0x334e <strtok_r+0x10>
    3348:	10 97       	sbiw	r26, 0x00	; 0
    334a:	e1 f0       	breq	.+56     	; 0x3384 <strtok_r+0x46>
    334c:	cd 01       	movw	r24, r26
    334e:	dc 01       	movw	r26, r24
    3350:	cd 01       	movw	r24, r26
    3352:	0d 90       	ld	r0, X+
    3354:	00 20       	and	r0, r0
    3356:	11 f4       	brne	.+4      	; 0x335c <strtok_r+0x1e>
    3358:	c0 01       	movw	r24, r0
    335a:	13 c0       	rjmp	.+38     	; 0x3382 <strtok_r+0x44>
    335c:	fb 01       	movw	r30, r22
    335e:	21 91       	ld	r18, Z+
    3360:	22 23       	and	r18, r18
    3362:	19 f0       	breq	.+6      	; 0x336a <strtok_r+0x2c>
    3364:	20 15       	cp	r18, r0
    3366:	d9 f7       	brne	.-10     	; 0x335e <strtok_r+0x20>
    3368:	f3 cf       	rjmp	.-26     	; 0x3350 <strtok_r+0x12>
    336a:	fb 01       	movw	r30, r22
    336c:	21 91       	ld	r18, Z+
    336e:	20 15       	cp	r18, r0
    3370:	19 f4       	brne	.+6      	; 0x3378 <strtok_r+0x3a>
    3372:	1e 92       	st	-X, r1
    3374:	11 96       	adiw	r26, 0x01	; 1
    3376:	06 c0       	rjmp	.+12     	; 0x3384 <strtok_r+0x46>
    3378:	22 23       	and	r18, r18
    337a:	c1 f7       	brne	.-16     	; 0x336c <strtok_r+0x2e>
    337c:	0d 90       	ld	r0, X+
    337e:	00 20       	and	r0, r0
    3380:	a1 f7       	brne	.-24     	; 0x336a <strtok_r+0x2c>
    3382:	d0 01       	movw	r26, r0
    3384:	fa 01       	movw	r30, r20
    3386:	a1 93       	st	Z+, r26
    3388:	b0 83       	st	Z, r27
    338a:	08 95       	ret

0000338c <fgetc>:
    338c:	cf 93       	push	r28
    338e:	df 93       	push	r29
    3390:	ec 01       	movw	r28, r24
    3392:	2b 81       	ldd	r18, Y+3	; 0x03
    3394:	20 ff       	sbrs	r18, 0
    3396:	33 c0       	rjmp	.+102    	; 0x33fe <fgetc+0x72>
    3398:	26 ff       	sbrs	r18, 6
    339a:	0a c0       	rjmp	.+20     	; 0x33b0 <fgetc+0x24>
    339c:	2f 7b       	andi	r18, 0xBF	; 191
    339e:	2b 83       	std	Y+3, r18	; 0x03
    33a0:	8e 81       	ldd	r24, Y+6	; 0x06
    33a2:	9f 81       	ldd	r25, Y+7	; 0x07
    33a4:	01 96       	adiw	r24, 0x01	; 1
    33a6:	8e 83       	std	Y+6, r24	; 0x06
    33a8:	9f 83       	std	Y+7, r25	; 0x07
    33aa:	8a 81       	ldd	r24, Y+2	; 0x02
    33ac:	90 e0       	ldi	r25, 0x00	; 0
    33ae:	29 c0       	rjmp	.+82     	; 0x3402 <fgetc+0x76>
    33b0:	22 ff       	sbrs	r18, 2
    33b2:	0f c0       	rjmp	.+30     	; 0x33d2 <fgetc+0x46>
    33b4:	e8 81       	ld	r30, Y
    33b6:	f9 81       	ldd	r31, Y+1	; 0x01
    33b8:	80 81       	ld	r24, Z
    33ba:	08 2e       	mov	r0, r24
    33bc:	00 0c       	add	r0, r0
    33be:	99 0b       	sbc	r25, r25
    33c0:	00 97       	sbiw	r24, 0x00	; 0
    33c2:	19 f4       	brne	.+6      	; 0x33ca <fgetc+0x3e>
    33c4:	20 62       	ori	r18, 0x20	; 32
    33c6:	2b 83       	std	Y+3, r18	; 0x03
    33c8:	1a c0       	rjmp	.+52     	; 0x33fe <fgetc+0x72>
    33ca:	31 96       	adiw	r30, 0x01	; 1
    33cc:	e8 83       	st	Y, r30
    33ce:	f9 83       	std	Y+1, r31	; 0x01
    33d0:	0e c0       	rjmp	.+28     	; 0x33ee <fgetc+0x62>
    33d2:	ea 85       	ldd	r30, Y+10	; 0x0a
    33d4:	fb 85       	ldd	r31, Y+11	; 0x0b
    33d6:	09 95       	icall
    33d8:	97 ff       	sbrs	r25, 7
    33da:	09 c0       	rjmp	.+18     	; 0x33ee <fgetc+0x62>
    33dc:	2b 81       	ldd	r18, Y+3	; 0x03
    33de:	01 96       	adiw	r24, 0x01	; 1
    33e0:	11 f0       	breq	.+4      	; 0x33e6 <fgetc+0x5a>
    33e2:	80 e2       	ldi	r24, 0x20	; 32
    33e4:	01 c0       	rjmp	.+2      	; 0x33e8 <fgetc+0x5c>
    33e6:	80 e1       	ldi	r24, 0x10	; 16
    33e8:	82 2b       	or	r24, r18
    33ea:	8b 83       	std	Y+3, r24	; 0x03
    33ec:	08 c0       	rjmp	.+16     	; 0x33fe <fgetc+0x72>
    33ee:	2e 81       	ldd	r18, Y+6	; 0x06
    33f0:	3f 81       	ldd	r19, Y+7	; 0x07
    33f2:	2f 5f       	subi	r18, 0xFF	; 255
    33f4:	3f 4f       	sbci	r19, 0xFF	; 255
    33f6:	2e 83       	std	Y+6, r18	; 0x06
    33f8:	3f 83       	std	Y+7, r19	; 0x07
    33fa:	99 27       	eor	r25, r25
    33fc:	02 c0       	rjmp	.+4      	; 0x3402 <fgetc+0x76>
    33fe:	8f ef       	ldi	r24, 0xFF	; 255
    3400:	9f ef       	ldi	r25, 0xFF	; 255
    3402:	df 91       	pop	r29
    3404:	cf 91       	pop	r28
    3406:	08 95       	ret

00003408 <fputc>:
    3408:	0f 93       	push	r16
    340a:	1f 93       	push	r17
    340c:	cf 93       	push	r28
    340e:	df 93       	push	r29
    3410:	fb 01       	movw	r30, r22
    3412:	23 81       	ldd	r18, Z+3	; 0x03
    3414:	21 fd       	sbrc	r18, 1
    3416:	03 c0       	rjmp	.+6      	; 0x341e <fputc+0x16>
    3418:	8f ef       	ldi	r24, 0xFF	; 255
    341a:	9f ef       	ldi	r25, 0xFF	; 255
    341c:	2c c0       	rjmp	.+88     	; 0x3476 <fputc+0x6e>
    341e:	22 ff       	sbrs	r18, 2
    3420:	16 c0       	rjmp	.+44     	; 0x344e <fputc+0x46>
    3422:	46 81       	ldd	r20, Z+6	; 0x06
    3424:	57 81       	ldd	r21, Z+7	; 0x07
    3426:	24 81       	ldd	r18, Z+4	; 0x04
    3428:	35 81       	ldd	r19, Z+5	; 0x05
    342a:	42 17       	cp	r20, r18
    342c:	53 07       	cpc	r21, r19
    342e:	44 f4       	brge	.+16     	; 0x3440 <fputc+0x38>
    3430:	a0 81       	ld	r26, Z
    3432:	b1 81       	ldd	r27, Z+1	; 0x01
    3434:	9d 01       	movw	r18, r26
    3436:	2f 5f       	subi	r18, 0xFF	; 255
    3438:	3f 4f       	sbci	r19, 0xFF	; 255
    343a:	20 83       	st	Z, r18
    343c:	31 83       	std	Z+1, r19	; 0x01
    343e:	8c 93       	st	X, r24
    3440:	26 81       	ldd	r18, Z+6	; 0x06
    3442:	37 81       	ldd	r19, Z+7	; 0x07
    3444:	2f 5f       	subi	r18, 0xFF	; 255
    3446:	3f 4f       	sbci	r19, 0xFF	; 255
    3448:	26 83       	std	Z+6, r18	; 0x06
    344a:	37 83       	std	Z+7, r19	; 0x07
    344c:	14 c0       	rjmp	.+40     	; 0x3476 <fputc+0x6e>
    344e:	8b 01       	movw	r16, r22
    3450:	ec 01       	movw	r28, r24
    3452:	fb 01       	movw	r30, r22
    3454:	00 84       	ldd	r0, Z+8	; 0x08
    3456:	f1 85       	ldd	r31, Z+9	; 0x09
    3458:	e0 2d       	mov	r30, r0
    345a:	09 95       	icall
    345c:	89 2b       	or	r24, r25
    345e:	e1 f6       	brne	.-72     	; 0x3418 <fputc+0x10>
    3460:	d8 01       	movw	r26, r16
    3462:	16 96       	adiw	r26, 0x06	; 6
    3464:	8d 91       	ld	r24, X+
    3466:	9c 91       	ld	r25, X
    3468:	17 97       	sbiw	r26, 0x07	; 7
    346a:	01 96       	adiw	r24, 0x01	; 1
    346c:	16 96       	adiw	r26, 0x06	; 6
    346e:	8d 93       	st	X+, r24
    3470:	9c 93       	st	X, r25
    3472:	17 97       	sbiw	r26, 0x07	; 7
    3474:	ce 01       	movw	r24, r28
    3476:	df 91       	pop	r29
    3478:	cf 91       	pop	r28
    347a:	1f 91       	pop	r17
    347c:	0f 91       	pop	r16
    347e:	08 95       	ret

00003480 <printf>:
    3480:	a0 e0       	ldi	r26, 0x00	; 0
    3482:	b0 e0       	ldi	r27, 0x00	; 0
    3484:	e6 e4       	ldi	r30, 0x46	; 70
    3486:	fa e1       	ldi	r31, 0x1A	; 26
    3488:	0c 94 3d 18 	jmp	0x307a	; 0x307a <__prologue_saves__+0x20>
    348c:	ae 01       	movw	r20, r28
    348e:	4b 5f       	subi	r20, 0xFB	; 251
    3490:	5f 4f       	sbci	r21, 0xFF	; 255
    3492:	fa 01       	movw	r30, r20
    3494:	61 91       	ld	r22, Z+
    3496:	71 91       	ld	r23, Z+
    3498:	af 01       	movw	r20, r30
    349a:	80 91 14 39 	lds	r24, 0x3914	; 0x803914 <__iob+0x2>
    349e:	90 91 15 39 	lds	r25, 0x3915	; 0x803915 <__iob+0x3>
    34a2:	0e 94 b0 14 	call	0x2960	; 0x2960 <vfprintf>
    34a6:	e2 e0       	ldi	r30, 0x02	; 2
    34a8:	0c 94 56 18 	jmp	0x30ac	; 0x30ac <__epilogue_restores__+0x20>

000034ac <puts>:
    34ac:	0f 93       	push	r16
    34ae:	1f 93       	push	r17
    34b0:	cf 93       	push	r28
    34b2:	df 93       	push	r29
    34b4:	e0 91 14 39 	lds	r30, 0x3914	; 0x803914 <__iob+0x2>
    34b8:	f0 91 15 39 	lds	r31, 0x3915	; 0x803915 <__iob+0x3>
    34bc:	23 81       	ldd	r18, Z+3	; 0x03
    34be:	21 ff       	sbrs	r18, 1
    34c0:	1b c0       	rjmp	.+54     	; 0x34f8 <puts+0x4c>
    34c2:	8c 01       	movw	r16, r24
    34c4:	d0 e0       	ldi	r29, 0x00	; 0
    34c6:	c0 e0       	ldi	r28, 0x00	; 0
    34c8:	f8 01       	movw	r30, r16
    34ca:	81 91       	ld	r24, Z+
    34cc:	8f 01       	movw	r16, r30
    34ce:	60 91 14 39 	lds	r22, 0x3914	; 0x803914 <__iob+0x2>
    34d2:	70 91 15 39 	lds	r23, 0x3915	; 0x803915 <__iob+0x3>
    34d6:	db 01       	movw	r26, r22
    34d8:	18 96       	adiw	r26, 0x08	; 8
    34da:	ed 91       	ld	r30, X+
    34dc:	fc 91       	ld	r31, X
    34de:	19 97       	sbiw	r26, 0x09	; 9
    34e0:	88 23       	and	r24, r24
    34e2:	31 f0       	breq	.+12     	; 0x34f0 <puts+0x44>
    34e4:	09 95       	icall
    34e6:	89 2b       	or	r24, r25
    34e8:	79 f3       	breq	.-34     	; 0x34c8 <puts+0x1c>
    34ea:	df ef       	ldi	r29, 0xFF	; 255
    34ec:	cf ef       	ldi	r28, 0xFF	; 255
    34ee:	ec cf       	rjmp	.-40     	; 0x34c8 <puts+0x1c>
    34f0:	8a e0       	ldi	r24, 0x0A	; 10
    34f2:	09 95       	icall
    34f4:	89 2b       	or	r24, r25
    34f6:	19 f0       	breq	.+6      	; 0x34fe <puts+0x52>
    34f8:	8f ef       	ldi	r24, 0xFF	; 255
    34fa:	9f ef       	ldi	r25, 0xFF	; 255
    34fc:	02 c0       	rjmp	.+4      	; 0x3502 <puts+0x56>
    34fe:	8d 2f       	mov	r24, r29
    3500:	9c 2f       	mov	r25, r28
    3502:	df 91       	pop	r29
    3504:	cf 91       	pop	r28
    3506:	1f 91       	pop	r17
    3508:	0f 91       	pop	r16
    350a:	08 95       	ret

0000350c <sscanf>:
    350c:	ae e0       	ldi	r26, 0x0E	; 14
    350e:	b0 e0       	ldi	r27, 0x00	; 0
    3510:	ec e8       	ldi	r30, 0x8C	; 140
    3512:	fa e1       	ldi	r31, 0x1A	; 26
    3514:	0c 94 3d 18 	jmp	0x307a	; 0x307a <__prologue_saves__+0x20>
    3518:	85 e0       	ldi	r24, 0x05	; 5
    351a:	8c 83       	std	Y+4, r24	; 0x04
    351c:	8b 89       	ldd	r24, Y+19	; 0x13
    351e:	9c 89       	ldd	r25, Y+20	; 0x14
    3520:	89 83       	std	Y+1, r24	; 0x01
    3522:	9a 83       	std	Y+2, r25	; 0x02
    3524:	ae 01       	movw	r20, r28
    3526:	49 5e       	subi	r20, 0xE9	; 233
    3528:	5f 4f       	sbci	r21, 0xFF	; 255
    352a:	6d 89       	ldd	r22, Y+21	; 0x15
    352c:	7e 89       	ldd	r23, Y+22	; 0x16
    352e:	ce 01       	movw	r24, r28
    3530:	01 96       	adiw	r24, 0x01	; 1
    3532:	0e 94 7e 13 	call	0x26fc	; 0x26fc <vfscanf>
    3536:	2e 96       	adiw	r28, 0x0e	; 14
    3538:	e2 e0       	ldi	r30, 0x02	; 2
    353a:	0c 94 56 18 	jmp	0x30ac	; 0x30ac <__epilogue_restores__+0x20>

0000353e <ungetc>:
    353e:	fb 01       	movw	r30, r22
    3540:	23 81       	ldd	r18, Z+3	; 0x03
    3542:	20 ff       	sbrs	r18, 0
    3544:	12 c0       	rjmp	.+36     	; 0x356a <ungetc+0x2c>
    3546:	26 fd       	sbrc	r18, 6
    3548:	10 c0       	rjmp	.+32     	; 0x356a <ungetc+0x2c>
    354a:	8f 3f       	cpi	r24, 0xFF	; 255
    354c:	3f ef       	ldi	r19, 0xFF	; 255
    354e:	93 07       	cpc	r25, r19
    3550:	61 f0       	breq	.+24     	; 0x356a <ungetc+0x2c>
    3552:	82 83       	std	Z+2, r24	; 0x02
    3554:	2f 7d       	andi	r18, 0xDF	; 223
    3556:	20 64       	ori	r18, 0x40	; 64
    3558:	23 83       	std	Z+3, r18	; 0x03
    355a:	26 81       	ldd	r18, Z+6	; 0x06
    355c:	37 81       	ldd	r19, Z+7	; 0x07
    355e:	21 50       	subi	r18, 0x01	; 1
    3560:	31 09       	sbc	r19, r1
    3562:	26 83       	std	Z+6, r18	; 0x06
    3564:	37 83       	std	Z+7, r19	; 0x07
    3566:	99 27       	eor	r25, r25
    3568:	08 95       	ret
    356a:	8f ef       	ldi	r24, 0xFF	; 255
    356c:	9f ef       	ldi	r25, 0xFF	; 255
    356e:	08 95       	ret

00003570 <__ultoa_invert>:
    3570:	fa 01       	movw	r30, r20
    3572:	aa 27       	eor	r26, r26
    3574:	28 30       	cpi	r18, 0x08	; 8
    3576:	51 f1       	breq	.+84     	; 0x35cc <__ultoa_invert+0x5c>
    3578:	20 31       	cpi	r18, 0x10	; 16
    357a:	81 f1       	breq	.+96     	; 0x35dc <__ultoa_invert+0x6c>
    357c:	e8 94       	clt
    357e:	6f 93       	push	r22
    3580:	6e 7f       	andi	r22, 0xFE	; 254
    3582:	6e 5f       	subi	r22, 0xFE	; 254
    3584:	7f 4f       	sbci	r23, 0xFF	; 255
    3586:	8f 4f       	sbci	r24, 0xFF	; 255
    3588:	9f 4f       	sbci	r25, 0xFF	; 255
    358a:	af 4f       	sbci	r26, 0xFF	; 255
    358c:	b1 e0       	ldi	r27, 0x01	; 1
    358e:	3e d0       	rcall	.+124    	; 0x360c <__ultoa_invert+0x9c>
    3590:	b4 e0       	ldi	r27, 0x04	; 4
    3592:	3c d0       	rcall	.+120    	; 0x360c <__ultoa_invert+0x9c>
    3594:	67 0f       	add	r22, r23
    3596:	78 1f       	adc	r23, r24
    3598:	89 1f       	adc	r24, r25
    359a:	9a 1f       	adc	r25, r26
    359c:	a1 1d       	adc	r26, r1
    359e:	68 0f       	add	r22, r24
    35a0:	79 1f       	adc	r23, r25
    35a2:	8a 1f       	adc	r24, r26
    35a4:	91 1d       	adc	r25, r1
    35a6:	a1 1d       	adc	r26, r1
    35a8:	6a 0f       	add	r22, r26
    35aa:	71 1d       	adc	r23, r1
    35ac:	81 1d       	adc	r24, r1
    35ae:	91 1d       	adc	r25, r1
    35b0:	a1 1d       	adc	r26, r1
    35b2:	20 d0       	rcall	.+64     	; 0x35f4 <__ultoa_invert+0x84>
    35b4:	09 f4       	brne	.+2      	; 0x35b8 <__ultoa_invert+0x48>
    35b6:	68 94       	set
    35b8:	3f 91       	pop	r19
    35ba:	2a e0       	ldi	r18, 0x0A	; 10
    35bc:	26 9f       	mul	r18, r22
    35be:	11 24       	eor	r1, r1
    35c0:	30 19       	sub	r19, r0
    35c2:	30 5d       	subi	r19, 0xD0	; 208
    35c4:	31 93       	st	Z+, r19
    35c6:	de f6       	brtc	.-74     	; 0x357e <__ultoa_invert+0xe>
    35c8:	cf 01       	movw	r24, r30
    35ca:	08 95       	ret
    35cc:	46 2f       	mov	r20, r22
    35ce:	47 70       	andi	r20, 0x07	; 7
    35d0:	40 5d       	subi	r20, 0xD0	; 208
    35d2:	41 93       	st	Z+, r20
    35d4:	b3 e0       	ldi	r27, 0x03	; 3
    35d6:	0f d0       	rcall	.+30     	; 0x35f6 <__ultoa_invert+0x86>
    35d8:	c9 f7       	brne	.-14     	; 0x35cc <__ultoa_invert+0x5c>
    35da:	f6 cf       	rjmp	.-20     	; 0x35c8 <__ultoa_invert+0x58>
    35dc:	46 2f       	mov	r20, r22
    35de:	4f 70       	andi	r20, 0x0F	; 15
    35e0:	40 5d       	subi	r20, 0xD0	; 208
    35e2:	4a 33       	cpi	r20, 0x3A	; 58
    35e4:	18 f0       	brcs	.+6      	; 0x35ec <__ultoa_invert+0x7c>
    35e6:	49 5d       	subi	r20, 0xD9	; 217
    35e8:	31 fd       	sbrc	r19, 1
    35ea:	40 52       	subi	r20, 0x20	; 32
    35ec:	41 93       	st	Z+, r20
    35ee:	02 d0       	rcall	.+4      	; 0x35f4 <__ultoa_invert+0x84>
    35f0:	a9 f7       	brne	.-22     	; 0x35dc <__ultoa_invert+0x6c>
    35f2:	ea cf       	rjmp	.-44     	; 0x35c8 <__ultoa_invert+0x58>
    35f4:	b4 e0       	ldi	r27, 0x04	; 4
    35f6:	a6 95       	lsr	r26
    35f8:	97 95       	ror	r25
    35fa:	87 95       	ror	r24
    35fc:	77 95       	ror	r23
    35fe:	67 95       	ror	r22
    3600:	ba 95       	dec	r27
    3602:	c9 f7       	brne	.-14     	; 0x35f6 <__ultoa_invert+0x86>
    3604:	00 97       	sbiw	r24, 0x00	; 0
    3606:	61 05       	cpc	r22, r1
    3608:	71 05       	cpc	r23, r1
    360a:	08 95       	ret
    360c:	9b 01       	movw	r18, r22
    360e:	ac 01       	movw	r20, r24
    3610:	0a 2e       	mov	r0, r26
    3612:	06 94       	lsr	r0
    3614:	57 95       	ror	r21
    3616:	47 95       	ror	r20
    3618:	37 95       	ror	r19
    361a:	27 95       	ror	r18
    361c:	ba 95       	dec	r27
    361e:	c9 f7       	brne	.-14     	; 0x3612 <__ultoa_invert+0xa2>
    3620:	62 0f       	add	r22, r18
    3622:	73 1f       	adc	r23, r19
    3624:	84 1f       	adc	r24, r20
    3626:	95 1f       	adc	r25, r21
    3628:	a0 1d       	adc	r26, r0
    362a:	08 95       	ret

0000362c <__ctype_isfalse>:
    362c:	99 27       	eor	r25, r25
    362e:	88 27       	eor	r24, r24

00003630 <__ctype_istrue>:
    3630:	08 95       	ret

00003632 <_exit>:
    3632:	f8 94       	cli

00003634 <__stop_program>:
    3634:	ff cf       	rjmp	.-2      	; 0x3634 <__stop_program>
